(dp1
S'output'
p2
S"<type 'exceptions.TypeError'> define_tables() got an unexpected keyword argument 'signature'"
p3
sS'layer'
p4
S'/home/nazrul/web2py/applications/isas/models/db.py'
p5
sS'code'
p6
S"# -*- coding: utf-8 -*-\n\n#########################################################################\n## This scaffolding model makes your app work on Google App Engine too\n## File is released under public domain and you can use without limitations\n#########################################################################\n\n## if SSL/HTTPS is properly configured and you want all HTTP requests to\n## be redirected to HTTPS, uncomment the line below:\n# request.requires_https()\n\nif not request.env.web2py_runtime_gae:\n    ## if NOT running on Google App Engine use SQLite or other DB\n    db = DAL('sqlite://storage.sqlite',pool_size=1,check_reserved=['all'])\nelse:\n    ## connect to Google BigTable (optional 'google:datastore://namespace')\n    db = DAL('google:datastore')\n    ## store sessions and tickets there\n    session.connect(request, response, db=db)\n    ## or store session in Memcache, Redis, etc.\n    ## from gluon.contrib.memdb import MEMDB\n    ## from google.appengine.api.memcache import Client\n    ## session.connect(request, response, db = MEMDB(Client()))\n\n## by default give a view/generic.extension to all actions from localhost\n## none otherwise. a pattern can be 'controller/function.extension'\nresponse.generic_patterns = ['*'] if request.is_local else []\n## (optional) optimize handling of static files\n# response.optimize_css = 'concat,minify,inline'\n# response.optimize_js = 'concat,minify,inline'\n\n#########################################################################\n## Here is sample code if you need for\n## - email capabilities\n## - authentication (registration, login, logout, ... )\n## - authorization (role based authorization)\n## - services (xml, csv, json, xmlrpc, jsonrpc, amf, rss)\n## - old style crud actions\n## (more options discussed in gluon/tools.py)\n#########################################################################\n\nfrom gluon.tools import Auth, Crud, Service, PluginManager, prettydate\nauth = Auth(db)\ncrud, service, plugins = Crud(db), Service(), PluginManager()\n\n## create all tables needed by auth if not custom tables\n#auth.settings.extra_fields['auth_user']= [\n#Field('age','integer',requires=IS_NOT_EMPTY()),\n#    Field('gender','string',requires=(IS_IN_SET(['Male','Female']),IS_NOT_EMPTY()),default='Male',widget=SQLFORM.widgets.radio.widget),\n#    Field('father_name','string',label='Father/Husband',requires=IS_NOT_EMPTY()),\n#    Field('address', 'text',requires=IS_NOT_EMPTY()),\n#    Field('phone', 'string',requires=IS_NOT_EMPTY()),\n#    Field('photo','upload'),\n    #Field('year','year'),\n#    Field('Batch',requires=IS_IN_SET(['UG1','UG2','UG3','UG4'])),\n    #Field('date1','datetime',default=request.now,label='date'), #registration date -- defines age above\n\t\t#request.now gets current timestamp (at time of form filling); request.now.date() is current date\n #   Field('registration_key', length=512, writable=False, readable=False, default='')]\nauth.define_tables(username=True, signature=False)\n\nmail = auth.settings.mailer\nmail.settings.server = 'smtp.gmail.com:587'\nmail.settings.sender = 'testisas989@gmail.com'\nmail.settings.login = 'testisas989@gmail.com:12345isas'\n## configure email\n#mail = auth.settings.mailer\n#mail.settings.server = 'smtp.gmail.com:587'\n#mail.settings.sender = 'testisas989@gmail.com'\n#mail.settings.login = 'testisas989@gmail.com:786isaschange'\n\n## configure auth policy\nauth.settings.registration_requires_verification = False\nauth.settings.registration_requires_approval = False\nauth.settings.reset_password_requires_verification = True\n\n## if you need to use OpenID, Facebook, MySpace, Twitter, Linkedin, etc.\n## register with janrain.com, write your domain:api_key in private/janrain.key\nfrom gluon.contrib.login_methods.rpx_account import use_janrain\nuse_janrain(auth, filename='private/janrain.key')\n\n#########################################################################\n## Define your tables below (or better in another model file) for example\n##\n## >>> db.define_table('mytable',Field('myfield','string'))\n##\n## Fields can be 'string','text','password','integer','double','boolean'\n##       'date','time','datetime','blob','upload', 'reference TABLENAME'\n## There is an implicit 'id integer autoincrement' field\n## Consult manual for more options, validators, etc.\n##\n## More API examples for controllers:\n##\n## >>> db.mytable.insert(myfield='value')\n## >>> rows=db(db.mytable.myfield=='value').select(db.mytable.ALL)\n## >>> for row in rows: print row.id, row.myfield\n#########################################################################      \ndb.define_table('student_det',\n    Field('user_id',db.auth_user,requires=IS_IN_DB(db,'auth_user.id','auth_user.first_name')),\n    Field('roll_no','integer',length=9,requires=IS_NOT_EMPTY()),\n    Field('year_join',length=4,requires=IS_NOT_EMPTY()),\n    Field('full_name','string',requires=IS_NOT_EMPTY()),\n    Field('branch',requires=IS_IN_SET(['CSD','CSE','ECE','ECD','EHD','CLD','CND'])))\ndb.define_table('course',\n    Field('name','string',requires=IS_NOT_EMPTY()),\n    Field('code','string',requires=IS_NOT_EMPTY()),\n    Field('credits','integer',requires=IS_NOT_EMPTY()),\n    Field('faculty','string',requires=IS_NOT_EMPTY()),\n    Field('description','text',requires=IS_NOT_EMPTY()))\ndb.define_table('grade',\n    Field('course_id',db.course,requires=IS_IN_DB(db,'course.id','course.name'),label='Course_name'),\n    Field('student_id',db.auth_user,requires=IS_IN_DB(db,'auth_user.id','auth_user.first_name'+'auth_user.last_name'),label='Student_name'),\n\tField('sem',requires=IS_IN_SET(['1','2','3','4','5','6','7','8'])),\n    Field('grade',requires=IS_EMPTY_OR(IS_IN_SET(['A','A-','B','B-','C','C-','D','F']))))\ndb.define_table('timing',\n    Field('from_1','datetime',requires=IS_NOT_EMPTY(),label='From'),\n    Field('to_1','datetime',requires=IS_NOT_EMPTY(),label='To'))\n## after defining tables, uncomment below to enable auditing\n# auth.enable_record_versioning(db)\n"
p7
sS'snapshot'
p8
(dp9
S'exception'
p10
(dp11
S'__hash__'
p12
S"<method-wrapper '__hash__' of exceptions.TypeError object>"
p13
sS'__setattr__'
p14
S"<method-wrapper '__setattr__' of exceptions.TypeError object>"
p15
sS'__reduce_ex__'
p16
S'<built-in method __reduce_ex__ of exceptions.TypeError object>'
p17
sS'__getslice__'
p18
S"<method-wrapper '__getslice__' of exceptions.TypeError object>"
p19
sS'__getitem__'
p20
S"<method-wrapper '__getitem__' of exceptions.TypeError object>"
p21
sS'__setstate__'
p22
S'<built-in method __setstate__ of exceptions.TypeError object>'
p23
sS'__reduce__'
p24
S'<built-in method __reduce__ of exceptions.TypeError object>'
p25
sS'__str__'
p26
S"<method-wrapper '__str__' of exceptions.TypeError object>"
p27
sS'__format__'
p28
S'<built-in method __format__ of exceptions.TypeError object>'
p29
sS'__getattribute__'
p30
S"<method-wrapper '__getattribute__' of exceptions.TypeError object>"
p31
sS'__class__'
p32
S"<type 'exceptions.TypeError'>"
p33
sS'__unicode__'
p34
S'<built-in method __unicode__ of exceptions.TypeError object>'
p35
sS'__delattr__'
p36
S"<method-wrapper '__delattr__' of exceptions.TypeError object>"
p37
sS'__subclasshook__'
p38
S'<built-in method __subclasshook__ of type object>'
p39
sS'__repr__'
p40
S"<method-wrapper '__repr__' of exceptions.TypeError object>"
p41
sS'args'
p42
S'("define_tables() got an unexpected keyword argument \'signature\'",)'
p43
sS'__dict__'
p44
S'{}'
p45
sS'__sizeof__'
p46
S'<built-in method __sizeof__ of exceptions.TypeError object>'
p47
sS'__doc__'
p48
S"'Inappropriate argument type.'"
p49
sS'__init__'
p50
S"<method-wrapper '__init__' of exceptions.TypeError object>"
p51
sS'__new__'
p52
S'<built-in method __new__ of type object>'
p53
ssS'evalue'
p54
S"define_tables() got an unexpected keyword argument 'signature'"
p55
sS'request'
p56
ccopy_reg
_reconstructor
p57
(cgluon.html
BEAUTIFY
p58
c__builtin__
object
p59
NtRp60
(dp61
S'attributes'
p62
(dp63
sS'components'
p64
(lp65
g57
(cgluon.html
TABLE
p66
g59
NtRp67
(dp68
g62
(dp69
S'level'
p70
I5
ssS'parent'
p71
Nsg64
(lp72
g57
(cgluon.html
TR
p73
g59
NtRp74
(dp75
g62
(dp76
sg71
g67
sg64
(lp77
g57
(cgluon.html
TD
p78
g59
NtRp79
(dp80
g62
(dp81
S'_style'
p82
S'font-weight:bold;vertical-align:top'
p83
ssg71
g74
sg64
(lp84
S'ajax'
p85
asbag57
(g78
g59
NtRp86
(dp87
g62
(dp88
S'_valign'
p89
S'top'
p90
ssg71
g74
sg64
(lp91
S':'
asbag57
(g78
g59
NtRp92
(dp93
g62
(dp94
sg71
g74
sg64
(lp95
g57
(g58
g59
NtRp96
(dp97
g62
(dp98
g70
I5
ssg71
g92
sg64
(lp99
S'False'
p100
asbasbasbag57
(g73
g59
NtRp101
(dp102
g62
(dp103
sg71
g67
sg64
(lp104
g57
(g78
g59
NtRp105
(dp106
g62
(dp107
g82
g83
ssg71
g101
sg64
(lp108
S'application'
p109
asbag57
(g78
g59
NtRp110
(dp111
g62
(dp112
g89
g90
ssg71
g101
sg64
(lp113
S':'
asbag57
(g78
g59
NtRp114
(dp115
g62
(dp116
sg71
g101
sg64
(lp117
g57
(g58
g59
NtRp118
(dp119
g62
(dp120
g70
I5
ssg71
g114
sg64
(lp121
S'isas'
p122
asbasbasbag57
(g73
g59
NtRp123
(dp124
g62
(dp125
sg71
g67
sg64
(lp126
g57
(g78
g59
NtRp127
(dp128
g62
(dp129
g82
g83
ssg71
g123
sg64
(lp130
g42
asbag57
(g78
g59
NtRp131
(dp132
g62
(dp133
g89
g90
ssg71
g123
sg64
(lp134
S':'
asbag57
(g78
g59
NtRp135
(dp136
g62
(dp137
sg71
g123
sg64
(lp138
g57
(g58
g59
NtRp139
(dp140
g62
(dp141
g70
I5
ssg71
g135
sg64
(lp142
g57
(g66
g59
NtRp143
(dp144
g62
(dp145
g70
I4
ssg71
Nsg64
(lp146
sbasbasbasbag57
(g73
g59
NtRp147
(dp148
g62
(dp149
sg71
g67
sg64
(lp150
g57
(g78
g59
NtRp151
(dp152
g62
(dp153
g82
g83
ssg71
g147
sg64
(lp154
S'body'
p155
asbag57
(g78
g59
NtRp156
(dp157
g62
(dp158
g89
g90
ssg71
g147
sg64
(lp159
S':'
asbag57
(g78
g59
NtRp160
(dp161
g62
(dp162
sg71
g147
sg64
(lp163
g57
(g58
g59
NtRp164
(dp165
g62
(dp166
g70
I5
ssg71
g160
sg64
(lp167
S'<cStringIO.StringO object at 0xabf772a0>'
p168
asbasbasbag57
(g73
g59
NtRp169
(dp170
g62
(dp171
sg71
g67
sg64
(lp172
g57
(g78
g59
NtRp173
(dp174
g62
(dp175
g82
g83
ssg71
g169
sg64
(lp176
S'client'
p177
asbag57
(g78
g59
NtRp178
(dp179
g62
(dp180
g89
g90
ssg71
g169
sg64
(lp181
S':'
asbag57
(g78
g59
NtRp182
(dp183
g62
(dp184
sg71
g169
sg64
(lp185
g57
(g58
g59
NtRp186
(dp187
g62
(dp188
g70
I5
ssg71
g182
sg64
(lp189
S'127.0.0.1'
p190
asbasbasbag57
(g73
g59
NtRp191
(dp192
g62
(dp193
sg71
g67
sg64
(lp194
g57
(g78
g59
NtRp195
(dp196
g62
(dp197
g82
g83
ssg71
g191
sg64
(lp198
S'controller'
p199
asbag57
(g78
g59
NtRp200
(dp201
g62
(dp202
g89
g90
ssg71
g191
sg64
(lp203
S':'
asbag57
(g78
g59
NtRp204
(dp205
g62
(dp206
sg71
g191
sg64
(lp207
g57
(g58
g59
NtRp208
(dp209
g62
(dp210
g70
I5
ssg71
g204
sg64
(lp211
S'default'
p212
asbasbasbag57
(g73
g59
NtRp213
(dp214
g62
(dp215
sg71
g67
sg64
(lp216
g57
(g78
g59
NtRp217
(dp218
g62
(dp219
g82
g83
ssg71
g213
sg64
(lp220
S'cookies'
p221
asbag57
(g78
g59
NtRp222
(dp223
g62
(dp224
g89
g90
ssg71
g213
sg64
(lp225
S':'
asbag57
(g78
g59
NtRp226
(dp227
g62
(dp228
sg71
g213
sg64
(lp229
g57
(g58
g59
NtRp230
(dp231
g62
(dp232
g70
I5
ssg71
g226
sg64
(lp233
g57
(g66
g59
NtRp234
(dp235
g62
(dp236
g70
I4
ssg71
Nsg64
(lp237
g57
(g73
g59
NtRp238
(dp239
g62
(dp240
sg71
g234
sg64
(lp241
g57
(g78
g59
NtRp242
(dp243
g62
(dp244
g82
g83
ssg71
g238
sg64
(lp245
S'session_id_admin'
p246
asbag57
(g78
g59
NtRp247
(dp248
g62
(dp249
g89
g90
ssg71
g238
sg64
(lp250
S':'
asbag57
(g78
g59
NtRp251
(dp252
g62
(dp253
sg71
g238
sg64
(lp254
g57
(g58
g59
NtRp255
(dp256
g62
(dp257
g70
I4
ssg71
g251
sg64
(lp258
g57
(g66
g59
NtRp259
(dp260
g62
(dp261
g70
I3
ssg71
Nsg64
(lp262
g57
(g73
g59
NtRp263
(dp264
g62
(dp265
sg71
g259
sg64
(lp266
g57
(g78
g59
NtRp267
(dp268
g62
(dp269
g82
g83
ssg71
g263
sg64
(lp270
S'comment'
p271
asbag57
(g78
g59
NtRp272
(dp273
g62
(dp274
g89
g90
ssg71
g263
sg64
(lp275
S':'
asbag57
(g78
g59
NtRp276
(dp277
g62
(dp278
sg71
g263
sg64
(lp279
g57
(g58
g59
NtRp280
(dp281
g62
(dp282
g70
I3
ssg71
g276
sg64
(lp283
S''
asbasbasbag57
(g73
g59
NtRp284
(dp285
g62
(dp286
sg71
g259
sg64
(lp287
g57
(g78
g59
NtRp288
(dp289
g62
(dp290
g82
g83
ssg71
g284
sg64
(lp291
S'domain'
p292
asbag57
(g78
g59
NtRp293
(dp294
g62
(dp295
g89
g90
ssg71
g284
sg64
(lp296
S':'
asbag57
(g78
g59
NtRp297
(dp298
g62
(dp299
sg71
g284
sg64
(lp300
g57
(g58
g59
NtRp301
(dp302
g62
(dp303
g70
I3
ssg71
g297
sg64
(lp304
S''
asbasbasbag57
(g73
g59
NtRp305
(dp306
g62
(dp307
sg71
g259
sg64
(lp308
g57
(g78
g59
NtRp309
(dp310
g62
(dp311
g82
g83
ssg71
g305
sg64
(lp312
S'expires'
p313
asbag57
(g78
g59
NtRp314
(dp315
g62
(dp316
g89
g90
ssg71
g305
sg64
(lp317
S':'
asbag57
(g78
g59
NtRp318
(dp319
g62
(dp320
sg71
g305
sg64
(lp321
g57
(g58
g59
NtRp322
(dp323
g62
(dp324
g70
I3
ssg71
g318
sg64
(lp325
S''
asbasbasbag57
(g73
g59
NtRp326
(dp327
g62
(dp328
sg71
g259
sg64
(lp329
g57
(g78
g59
NtRp330
(dp331
g62
(dp332
g82
g83
ssg71
g326
sg64
(lp333
S'httponly'
p334
asbag57
(g78
g59
NtRp335
(dp336
g62
(dp337
g89
g90
ssg71
g326
sg64
(lp338
S':'
asbag57
(g78
g59
NtRp339
(dp340
g62
(dp341
sg71
g326
sg64
(lp342
g57
(g58
g59
NtRp343
(dp344
g62
(dp345
g70
I3
ssg71
g339
sg64
(lp346
S''
asbasbasbag57
(g73
g59
NtRp347
(dp348
g62
(dp349
sg71
g259
sg64
(lp350
g57
(g78
g59
NtRp351
(dp352
g62
(dp353
g82
g83
ssg71
g347
sg64
(lp354
S'max-age'
p355
asbag57
(g78
g59
NtRp356
(dp357
g62
(dp358
g89
g90
ssg71
g347
sg64
(lp359
S':'
asbag57
(g78
g59
NtRp360
(dp361
g62
(dp362
sg71
g347
sg64
(lp363
g57
(g58
g59
NtRp364
(dp365
g62
(dp366
g70
I3
ssg71
g360
sg64
(lp367
S''
asbasbasbag57
(g73
g59
NtRp368
(dp369
g62
(dp370
sg71
g259
sg64
(lp371
g57
(g78
g59
NtRp372
(dp373
g62
(dp374
g82
g83
ssg71
g368
sg64
(lp375
S'path'
p376
asbag57
(g78
g59
NtRp377
(dp378
g62
(dp379
g89
g90
ssg71
g368
sg64
(lp380
S':'
asbag57
(g78
g59
NtRp381
(dp382
g62
(dp383
sg71
g368
sg64
(lp384
g57
(g58
g59
NtRp385
(dp386
g62
(dp387
g70
I3
ssg71
g381
sg64
(lp388
S''
asbasbasbag57
(g73
g59
NtRp389
(dp390
g62
(dp391
sg71
g259
sg64
(lp392
g57
(g78
g59
NtRp393
(dp394
g62
(dp395
g82
g83
ssg71
g389
sg64
(lp396
S'secure'
p397
asbag57
(g78
g59
NtRp398
(dp399
g62
(dp400
g89
g90
ssg71
g389
sg64
(lp401
S':'
asbag57
(g78
g59
NtRp402
(dp403
g62
(dp404
sg71
g389
sg64
(lp405
g57
(g58
g59
NtRp406
(dp407
g62
(dp408
g70
I3
ssg71
g402
sg64
(lp409
S''
asbasbasbag57
(g73
g59
NtRp410
(dp411
g62
(dp412
sg71
g259
sg64
(lp413
g57
(g78
g59
NtRp414
(dp415
g62
(dp416
g82
g83
ssg71
g410
sg64
(lp417
S'version'
p418
asbag57
(g78
g59
NtRp419
(dp420
g62
(dp421
g89
g90
ssg71
g410
sg64
(lp422
S':'
asbag57
(g78
g59
NtRp423
(dp424
g62
(dp425
sg71
g410
sg64
(lp426
g57
(g58
g59
NtRp427
(dp428
g62
(dp429
g70
I3
ssg71
g423
sg64
(lp430
S''
asbasbasbasbasbasbasbag57
(g73
g59
NtRp431
(dp432
g62
(dp433
sg71
g234
sg64
(lp434
g57
(g78
g59
NtRp435
(dp436
g62
(dp437
g82
g83
ssg71
g431
sg64
(lp438
S'session_id_welcome'
p439
asbag57
(g78
g59
NtRp440
(dp441
g62
(dp442
g89
g90
ssg71
g431
sg64
(lp443
S':'
asbag57
(g78
g59
NtRp444
(dp445
g62
(dp446
sg71
g431
sg64
(lp447
g57
(g58
g59
NtRp448
(dp449
g62
(dp450
g70
I4
ssg71
g444
sg64
(lp451
g57
(g66
g59
NtRp452
(dp453
g62
(dp454
g70
I3
ssg71
Nsg64
(lp455
g57
(g73
g59
NtRp456
(dp457
g62
(dp458
sg71
g452
sg64
(lp459
g57
(g78
g59
NtRp460
(dp461
g62
(dp462
g82
g83
ssg71
g456
sg64
(lp463
g271
asbag57
(g78
g59
NtRp464
(dp465
g62
(dp466
g89
g90
ssg71
g456
sg64
(lp467
S':'
asbag57
(g78
g59
NtRp468
(dp469
g62
(dp470
sg71
g456
sg64
(lp471
g57
(g58
g59
NtRp472
(dp473
g62
(dp474
g70
I3
ssg71
g468
sg64
(lp475
S''
asbasbasbag57
(g73
g59
NtRp476
(dp477
g62
(dp478
sg71
g452
sg64
(lp479
g57
(g78
g59
NtRp480
(dp481
g62
(dp482
g82
g83
ssg71
g476
sg64
(lp483
g292
asbag57
(g78
g59
NtRp484
(dp485
g62
(dp486
g89
g90
ssg71
g476
sg64
(lp487
S':'
asbag57
(g78
g59
NtRp488
(dp489
g62
(dp490
sg71
g476
sg64
(lp491
g57
(g58
g59
NtRp492
(dp493
g62
(dp494
g70
I3
ssg71
g488
sg64
(lp495
S''
asbasbasbag57
(g73
g59
NtRp496
(dp497
g62
(dp498
sg71
g452
sg64
(lp499
g57
(g78
g59
NtRp500
(dp501
g62
(dp502
g82
g83
ssg71
g496
sg64
(lp503
g313
asbag57
(g78
g59
NtRp504
(dp505
g62
(dp506
g89
g90
ssg71
g496
sg64
(lp507
S':'
asbag57
(g78
g59
NtRp508
(dp509
g62
(dp510
sg71
g496
sg64
(lp511
g57
(g58
g59
NtRp512
(dp513
g62
(dp514
g70
I3
ssg71
g508
sg64
(lp515
S''
asbasbasbag57
(g73
g59
NtRp516
(dp517
g62
(dp518
sg71
g452
sg64
(lp519
g57
(g78
g59
NtRp520
(dp521
g62
(dp522
g82
g83
ssg71
g516
sg64
(lp523
g334
asbag57
(g78
g59
NtRp524
(dp525
g62
(dp526
g89
g90
ssg71
g516
sg64
(lp527
S':'
asbag57
(g78
g59
NtRp528
(dp529
g62
(dp530
sg71
g516
sg64
(lp531
g57
(g58
g59
NtRp532
(dp533
g62
(dp534
g70
I3
ssg71
g528
sg64
(lp535
S''
asbasbasbag57
(g73
g59
NtRp536
(dp537
g62
(dp538
sg71
g452
sg64
(lp539
g57
(g78
g59
NtRp540
(dp541
g62
(dp542
g82
g83
ssg71
g536
sg64
(lp543
g355
asbag57
(g78
g59
NtRp544
(dp545
g62
(dp546
g89
g90
ssg71
g536
sg64
(lp547
S':'
asbag57
(g78
g59
NtRp548
(dp549
g62
(dp550
sg71
g536
sg64
(lp551
g57
(g58
g59
NtRp552
(dp553
g62
(dp554
g70
I3
ssg71
g548
sg64
(lp555
S''
asbasbasbag57
(g73
g59
NtRp556
(dp557
g62
(dp558
sg71
g452
sg64
(lp559
g57
(g78
g59
NtRp560
(dp561
g62
(dp562
g82
g83
ssg71
g556
sg64
(lp563
g376
asbag57
(g78
g59
NtRp564
(dp565
g62
(dp566
g89
g90
ssg71
g556
sg64
(lp567
S':'
asbag57
(g78
g59
NtRp568
(dp569
g62
(dp570
sg71
g556
sg64
(lp571
g57
(g58
g59
NtRp572
(dp573
g62
(dp574
g70
I3
ssg71
g568
sg64
(lp575
S''
asbasbasbag57
(g73
g59
NtRp576
(dp577
g62
(dp578
sg71
g452
sg64
(lp579
g57
(g78
g59
NtRp580
(dp581
g62
(dp582
g82
g83
ssg71
g576
sg64
(lp583
g397
asbag57
(g78
g59
NtRp584
(dp585
g62
(dp586
g89
g90
ssg71
g576
sg64
(lp587
S':'
asbag57
(g78
g59
NtRp588
(dp589
g62
(dp590
sg71
g576
sg64
(lp591
g57
(g58
g59
NtRp592
(dp593
g62
(dp594
g70
I3
ssg71
g588
sg64
(lp595
S''
asbasbasbag57
(g73
g59
NtRp596
(dp597
g62
(dp598
sg71
g452
sg64
(lp599
g57
(g78
g59
NtRp600
(dp601
g62
(dp602
g82
g83
ssg71
g596
sg64
(lp603
g418
asbag57
(g78
g59
NtRp604
(dp605
g62
(dp606
g89
g90
ssg71
g596
sg64
(lp607
S':'
asbag57
(g78
g59
NtRp608
(dp609
g62
(dp610
sg71
g596
sg64
(lp611
g57
(g58
g59
NtRp612
(dp613
g62
(dp614
g70
I3
ssg71
g608
sg64
(lp615
S''
asbasbasbasbasbasbasbasbasbasbasbag57
(g73
g59
NtRp616
(dp617
g62
(dp618
sg71
g67
sg64
(lp619
g57
(g78
g59
NtRp620
(dp621
g62
(dp622
g82
g83
ssg71
g616
sg64
(lp623
S'env'
p624
asbag57
(g78
g59
NtRp625
(dp626
g62
(dp627
g89
g90
ssg71
g616
sg64
(lp628
S':'
asbag57
(g78
g59
NtRp629
(dp630
g62
(dp631
sg71
g616
sg64
(lp632
g57
(g58
g59
NtRp633
(dp634
g62
(dp635
g70
I5
ssg71
g629
sg64
(lp636
g57
(g66
g59
NtRp637
(dp638
g62
(dp639
g70
I4
ssg71
Nsg64
(lp640
g57
(g73
g59
NtRp641
(dp642
g62
(dp643
sg71
g637
sg64
(lp644
g57
(g78
g59
NtRp645
(dp646
g62
(dp647
g82
g83
ssg71
g641
sg64
(lp648
S'app_folders'
p649
asbag57
(g78
g59
NtRp650
(dp651
g62
(dp652
g89
g90
ssg71
g641
sg64
(lp653
S':'
asbag57
(g78
g59
NtRp654
(dp655
g62
(dp656
sg71
g641
sg64
(lp657
g57
(g58
g59
NtRp658
(dp659
g62
(dp660
g70
I4
ssg71
g654
sg64
(lp661
S"set(['/home/nazrul/web2py/applications/isas3/', '/home/nazrul/web2py/applications/welcome/', '/home/nazrul/web2py/applications/isas/', '/home/nazrul/web2py/applications/admin/'])"
p662
asbasbasbag57
(g73
g59
NtRp663
(dp664
g62
(dp665
sg71
g637
sg64
(lp666
g57
(g78
g59
NtRp667
(dp668
g62
(dp669
g82
g83
ssg71
g663
sg64
(lp670
S'applications_parent'
p671
asbag57
(g78
g59
NtRp672
(dp673
g62
(dp674
g89
g90
ssg71
g663
sg64
(lp675
S':'
asbag57
(g78
g59
NtRp676
(dp677
g62
(dp678
sg71
g663
sg64
(lp679
g57
(g58
g59
NtRp680
(dp681
g62
(dp682
g70
I4
ssg71
g676
sg64
(lp683
S'/home/nazrul/web2py'
p684
asbasbasbag57
(g73
g59
NtRp685
(dp686
g62
(dp687
sg71
g637
sg64
(lp688
g57
(g78
g59
NtRp689
(dp690
g62
(dp691
g82
g83
ssg71
g685
sg64
(lp692
S'cmd_args'
p693
asbag57
(g78
g59
NtRp694
(dp695
g62
(dp696
g89
g90
ssg71
g685
sg64
(lp697
S':'
asbag57
(g78
g59
NtRp698
(dp699
g62
(dp700
sg71
g685
sg64
(lp701
g57
(g58
g59
NtRp702
(dp703
g62
(dp704
g70
I4
ssg71
g698
sg64
(lp705
g57
(g66
g59
NtRp706
(dp707
g62
(dp708
g70
I3
ssg71
Nsg64
(lp709
sbasbasbasbag57
(g73
g59
NtRp710
(dp711
g62
(dp712
sg71
g637
sg64
(lp713
g57
(g78
g59
NtRp714
(dp715
g62
(dp716
g82
g83
ssg71
g710
sg64
(lp717
S'cmd_options'
p718
asbag57
(g78
g59
NtRp719
(dp720
g62
(dp721
g89
g90
ssg71
g710
sg64
(lp722
S':'
asbag57
(g78
g59
NtRp723
(dp724
g62
(dp725
sg71
g710
sg64
(lp726
g57
(g58
g59
NtRp727
(dp728
g62
(dp729
g70
I4
ssg71
g723
sg64
(lp730
S"<Values at 0x8ca5acc: {'verbose': False, 'ip': '127.0.0.1', 'shutdown_timeout': 5, 'taskbar': False, 'nocron': False, 'pid_filename': 'httpserver.pid', 'maxthreads': None, 'softcron': False, 'server_name': 'nazrul', 'bpython': False, 'nogui': False, 'port': 8000, 'extcron': False, 'debuglevel': 30, 'test': None, 'folder': '/home/nazrul/web2py', 'config': '', 'import_models': False, 'winservice': '', 'shell': None, 'run': '', 'log_filename': 'httpserver.log', 'args': [''], 'socket_timeout': 5, 'ssl_ca_certificate': None, 'scheduler': None, 'profiler_filename': None, 'ssl_private_key': '', 'password': '<ask>', 'request_queue_size': 5, 'ssl_certificate': '', 'cronjob': False, 'numthreads': None, 'quiet': False, 'interfaces': None, 'minthreads': None, 'timeout': 10, 'plain': False, 'nobanner': False}>"
p731
asbasbasbag57
(g73
g59
NtRp732
(dp733
g62
(dp734
sg71
g637
sg64
(lp735
g57
(g78
g59
NtRp736
(dp737
g62
(dp738
g82
g83
ssg71
g732
sg64
(lp739
S'db_sessions'
p740
asbag57
(g78
g59
NtRp741
(dp742
g62
(dp743
g89
g90
ssg71
g732
sg64
(lp744
S':'
asbag57
(g78
g59
NtRp745
(dp746
g62
(dp747
sg71
g732
sg64
(lp748
g57
(g58
g59
NtRp749
(dp750
g62
(dp751
g70
I4
ssg71
g745
sg64
(lp752
S'set([])'
p753
asbasbasbag57
(g73
g59
NtRp754
(dp755
g62
(dp756
sg71
g637
sg64
(lp757
g57
(g78
g59
NtRp758
(dp759
g62
(dp760
g82
g83
ssg71
g754
sg64
(lp761
S'debugging'
p762
asbag57
(g78
g59
NtRp763
(dp764
g62
(dp765
g89
g90
ssg71
g754
sg64
(lp766
S':'
asbag57
(g78
g59
NtRp767
(dp768
g62
(dp769
sg71
g754
sg64
(lp770
g57
(g58
g59
NtRp771
(dp772
g62
(dp773
g70
I4
ssg71
g767
sg64
(lp774
g100
asbasbasbag57
(g73
g59
NtRp775
(dp776
g62
(dp777
sg71
g637
sg64
(lp778
g57
(g78
g59
NtRp779
(dp780
g62
(dp781
g82
g83
ssg71
g775
sg64
(lp782
S'gluon_parent'
p783
asbag57
(g78
g59
NtRp784
(dp785
g62
(dp786
g89
g90
ssg71
g775
sg64
(lp787
S':'
asbag57
(g78
g59
NtRp788
(dp789
g62
(dp790
sg71
g775
sg64
(lp791
g57
(g58
g59
NtRp792
(dp793
g62
(dp794
g70
I4
ssg71
g788
sg64
(lp795
S'/usr/share/web2py'
p796
asbasbasbag57
(g73
g59
NtRp797
(dp798
g62
(dp799
sg71
g637
sg64
(lp800
g57
(g78
g59
NtRp801
(dp802
g62
(dp803
g82
g83
ssg71
g797
sg64
(lp804
S'http_accept'
p805
asbag57
(g78
g59
NtRp806
(dp807
g62
(dp808
g89
g90
ssg71
g797
sg64
(lp809
S':'
asbag57
(g78
g59
NtRp810
(dp811
g62
(dp812
sg71
g797
sg64
(lp813
g57
(g58
g59
NtRp814
(dp815
g62
(dp816
g70
I4
ssg71
g810
sg64
(lp817
S'text/html,application/xhtml+xml,application/xml;q=0.9,*/*;q=0.8'
p818
asbasbasbag57
(g73
g59
NtRp819
(dp820
g62
(dp821
sg71
g637
sg64
(lp822
g57
(g78
g59
NtRp823
(dp824
g62
(dp825
g82
g83
ssg71
g819
sg64
(lp826
S'http_accept_encoding'
p827
asbag57
(g78
g59
NtRp828
(dp829
g62
(dp830
g89
g90
ssg71
g819
sg64
(lp831
S':'
asbag57
(g78
g59
NtRp832
(dp833
g62
(dp834
sg71
g819
sg64
(lp835
g57
(g58
g59
NtRp836
(dp837
g62
(dp838
g70
I4
ssg71
g832
sg64
(lp839
S'gzip, deflate'
p840
asbasbasbag57
(g73
g59
NtRp841
(dp842
g62
(dp843
sg71
g637
sg64
(lp844
g57
(g78
g59
NtRp845
(dp846
g62
(dp847
g82
g83
ssg71
g841
sg64
(lp848
S'http_accept_language'
p849
asbag57
(g78
g59
NtRp850
(dp851
g62
(dp852
g89
g90
ssg71
g841
sg64
(lp853
S':'
asbag57
(g78
g59
NtRp854
(dp855
g62
(dp856
sg71
g841
sg64
(lp857
g57
(g58
g59
NtRp858
(dp859
g62
(dp860
g70
I4
ssg71
g854
sg64
(lp861
S'en-US,en;q=0.5'
p862
asbasbasbag57
(g73
g59
NtRp863
(dp864
g62
(dp865
sg71
g637
sg64
(lp866
g57
(g78
g59
NtRp867
(dp868
g62
(dp869
g82
g83
ssg71
g863
sg64
(lp870
S'http_connection'
p871
asbag57
(g78
g59
NtRp872
(dp873
g62
(dp874
g89
g90
ssg71
g863
sg64
(lp875
S':'
asbag57
(g78
g59
NtRp876
(dp877
g62
(dp878
sg71
g863
sg64
(lp879
g57
(g58
g59
NtRp880
(dp881
g62
(dp882
g70
I4
ssg71
g876
sg64
(lp883
S'keep-alive'
p884
asbasbasbag57
(g73
g59
NtRp885
(dp886
g62
(dp887
sg71
g637
sg64
(lp888
g57
(g78
g59
NtRp889
(dp890
g62
(dp891
g82
g83
ssg71
g885
sg64
(lp892
S'http_cookie'
p893
asbag57
(g78
g59
NtRp894
(dp895
g62
(dp896
g89
g90
ssg71
g885
sg64
(lp897
S':'
asbag57
(g78
g59
NtRp898
(dp899
g62
(dp900
sg71
g885
sg64
(lp901
g57
(g58
g59
NtRp902
(dp903
g62
(dp904
g70
I4
ssg71
g898
sg64
(lp905
S'session_id_welcome=127.0.0.1-d9601de4-8713-4be0-86d7-58995d170c35; session_id_admin=127.0.0.1-9bce634e-8e59-435c-b5cb-5a1b8a162cd2'
p906
asbasbasbag57
(g73
g59
NtRp907
(dp908
g62
(dp909
sg71
g637
sg64
(lp910
g57
(g78
g59
NtRp911
(dp912
g62
(dp913
g82
g83
ssg71
g907
sg64
(lp914
S'http_host'
p915
asbag57
(g78
g59
NtRp916
(dp917
g62
(dp918
g89
g90
ssg71
g907
sg64
(lp919
S':'
asbag57
(g78
g59
NtRp920
(dp921
g62
(dp922
sg71
g907
sg64
(lp923
g57
(g58
g59
NtRp924
(dp925
g62
(dp926
g70
I4
ssg71
g920
sg64
(lp927
S'127.0.0.1:8000'
p928
asbasbasbag57
(g73
g59
NtRp929
(dp930
g62
(dp931
sg71
g637
sg64
(lp932
g57
(g78
g59
NtRp933
(dp934
g62
(dp935
g82
g83
ssg71
g929
sg64
(lp936
S'http_referer'
p937
asbag57
(g78
g59
NtRp938
(dp939
g62
(dp940
g89
g90
ssg71
g929
sg64
(lp941
S':'
asbag57
(g78
g59
NtRp942
(dp943
g62
(dp944
sg71
g929
sg64
(lp945
g57
(g58
g59
NtRp946
(dp947
g62
(dp948
g70
I4
ssg71
g942
sg64
(lp949
S'http://127.0.0.1:8000/admin/default/design/isas'
p950
asbasbasbag57
(g73
g59
NtRp951
(dp952
g62
(dp953
sg71
g637
sg64
(lp954
g57
(g78
g59
NtRp955
(dp956
g62
(dp957
g82
g83
ssg71
g951
sg64
(lp958
S'http_user_agent'
p959
asbag57
(g78
g59
NtRp960
(dp961
g62
(dp962
g89
g90
ssg71
g951
sg64
(lp963
S':'
asbag57
(g78
g59
NtRp964
(dp965
g62
(dp966
sg71
g951
sg64
(lp967
g57
(g58
g59
NtRp968
(dp969
g62
(dp970
g70
I4
ssg71
g964
sg64
(lp971
S'Mozilla/5.0 (X11; Ubuntu; Linux i686; rv:26.0) Gecko/20100101 Firefox/26.0'
p972
asbasbasbag57
(g73
g59
NtRp973
(dp974
g62
(dp975
sg71
g637
sg64
(lp976
g57
(g78
g59
NtRp977
(dp978
g62
(dp979
g82
g83
ssg71
g973
sg64
(lp980
S'is_jython'
p981
asbag57
(g78
g59
NtRp982
(dp983
g62
(dp984
g89
g90
ssg71
g973
sg64
(lp985
S':'
asbag57
(g78
g59
NtRp986
(dp987
g62
(dp988
sg71
g973
sg64
(lp989
g57
(g58
g59
NtRp990
(dp991
g62
(dp992
g70
I4
ssg71
g986
sg64
(lp993
g100
asbasbasbag57
(g73
g59
NtRp994
(dp995
g62
(dp996
sg71
g637
sg64
(lp997
g57
(g78
g59
NtRp998
(dp999
g62
(dp1000
g82
g83
ssg71
g994
sg64
(lp1001
S'is_pypy'
p1002
asbag57
(g78
g59
NtRp1003
(dp1004
g62
(dp1005
g89
g90
ssg71
g994
sg64
(lp1006
S':'
asbag57
(g78
g59
NtRp1007
(dp1008
g62
(dp1009
sg71
g994
sg64
(lp1010
g57
(g58
g59
NtRp1011
(dp1012
g62
(dp1013
g70
I4
ssg71
g1007
sg64
(lp1014
g100
asbasbasbag57
(g73
g59
NtRp1015
(dp1016
g62
(dp1017
sg71
g637
sg64
(lp1018
g57
(g78
g59
NtRp1019
(dp1020
g62
(dp1021
g82
g83
ssg71
g1015
sg64
(lp1022
S'path_info'
p1023
asbag57
(g78
g59
NtRp1024
(dp1025
g62
(dp1026
g89
g90
ssg71
g1015
sg64
(lp1027
S':'
asbag57
(g78
g59
NtRp1028
(dp1029
g62
(dp1030
sg71
g1015
sg64
(lp1031
g57
(g58
g59
NtRp1032
(dp1033
g62
(dp1034
g70
I4
ssg71
g1028
sg64
(lp1035
S'/isas/default/index'
p1036
asbasbasbag57
(g73
g59
NtRp1037
(dp1038
g62
(dp1039
sg71
g637
sg64
(lp1040
g57
(g78
g59
NtRp1041
(dp1042
g62
(dp1043
g82
g83
ssg71
g1037
sg64
(lp1044
S'query_string'
p1045
asbag57
(g78
g59
NtRp1046
(dp1047
g62
(dp1048
g89
g90
ssg71
g1037
sg64
(lp1049
S':'
asbag57
(g78
g59
NtRp1050
(dp1051
g62
(dp1052
sg71
g1037
sg64
(lp1053
g57
(g58
g59
NtRp1054
(dp1055
g62
(dp1056
g70
I4
ssg71
g1050
sg64
(lp1057
S''
asbasbasbag57
(g73
g59
NtRp1058
(dp1059
g62
(dp1060
sg71
g637
sg64
(lp1061
g57
(g78
g59
NtRp1062
(dp1063
g62
(dp1064
g82
g83
ssg71
g1058
sg64
(lp1065
S'remote_addr'
p1066
asbag57
(g78
g59
NtRp1067
(dp1068
g62
(dp1069
g89
g90
ssg71
g1058
sg64
(lp1070
S':'
asbag57
(g78
g59
NtRp1071
(dp1072
g62
(dp1073
sg71
g1058
sg64
(lp1074
g57
(g58
g59
NtRp1075
(dp1076
g62
(dp1077
g70
I4
ssg71
g1071
sg64
(lp1078
g190
asbasbasbag57
(g73
g59
NtRp1079
(dp1080
g62
(dp1081
sg71
g637
sg64
(lp1082
g57
(g78
g59
NtRp1083
(dp1084
g62
(dp1085
g82
g83
ssg71
g1079
sg64
(lp1086
S'remote_port'
p1087
asbag57
(g78
g59
NtRp1088
(dp1089
g62
(dp1090
g89
g90
ssg71
g1079
sg64
(lp1091
S':'
asbag57
(g78
g59
NtRp1092
(dp1093
g62
(dp1094
sg71
g1079
sg64
(lp1095
g57
(g58
g59
NtRp1096
(dp1097
g62
(dp1098
g70
I4
ssg71
g1092
sg64
(lp1099
S'57360'
p1100
asbasbasbag57
(g73
g59
NtRp1101
(dp1102
g62
(dp1103
sg71
g637
sg64
(lp1104
g57
(g78
g59
NtRp1105
(dp1106
g62
(dp1107
g82
g83
ssg71
g1101
sg64
(lp1108
S'request_method'
p1109
asbag57
(g78
g59
NtRp1110
(dp1111
g62
(dp1112
g89
g90
ssg71
g1101
sg64
(lp1113
S':'
asbag57
(g78
g59
NtRp1114
(dp1115
g62
(dp1116
sg71
g1101
sg64
(lp1117
g57
(g58
g59
NtRp1118
(dp1119
g62
(dp1120
g70
I4
ssg71
g1114
sg64
(lp1121
S'GET'
p1122
asbasbasbag57
(g73
g59
NtRp1123
(dp1124
g62
(dp1125
sg71
g637
sg64
(lp1126
g57
(g78
g59
NtRp1127
(dp1128
g62
(dp1129
g82
g83
ssg71
g1123
sg64
(lp1130
S'script_name'
p1131
asbag57
(g78
g59
NtRp1132
(dp1133
g62
(dp1134
g89
g90
ssg71
g1123
sg64
(lp1135
S':'
asbag57
(g78
g59
NtRp1136
(dp1137
g62
(dp1138
sg71
g1123
sg64
(lp1139
g57
(g58
g59
NtRp1140
(dp1141
g62
(dp1142
g70
I4
ssg71
g1136
sg64
(lp1143
S''
asbasbasbag57
(g73
g59
NtRp1144
(dp1145
g62
(dp1146
sg71
g637
sg64
(lp1147
g57
(g78
g59
NtRp1148
(dp1149
g62
(dp1150
g82
g83
ssg71
g1144
sg64
(lp1151
S'server_name'
p1152
asbag57
(g78
g59
NtRp1153
(dp1154
g62
(dp1155
g89
g90
ssg71
g1144
sg64
(lp1156
S':'
asbag57
(g78
g59
NtRp1157
(dp1158
g62
(dp1159
sg71
g1144
sg64
(lp1160
g57
(g58
g59
NtRp1161
(dp1162
g62
(dp1163
g70
I4
ssg71
g1157
sg64
(lp1164
S'nazrul'
p1165
asbasbasbag57
(g73
g59
NtRp1166
(dp1167
g62
(dp1168
sg71
g637
sg64
(lp1169
g57
(g78
g59
NtRp1170
(dp1171
g62
(dp1172
g82
g83
ssg71
g1166
sg64
(lp1173
S'server_port'
p1174
asbag57
(g78
g59
NtRp1175
(dp1176
g62
(dp1177
g89
g90
ssg71
g1166
sg64
(lp1178
S':'
asbag57
(g78
g59
NtRp1179
(dp1180
g62
(dp1181
sg71
g1166
sg64
(lp1182
g57
(g58
g59
NtRp1183
(dp1184
g62
(dp1185
g70
I4
ssg71
g1179
sg64
(lp1186
S'8000'
p1187
asbasbasbag57
(g73
g59
NtRp1188
(dp1189
g62
(dp1190
sg71
g637
sg64
(lp1191
g57
(g78
g59
NtRp1192
(dp1193
g62
(dp1194
g82
g83
ssg71
g1188
sg64
(lp1195
S'server_protocol'
p1196
asbag57
(g78
g59
NtRp1197
(dp1198
g62
(dp1199
g89
g90
ssg71
g1188
sg64
(lp1200
S':'
asbag57
(g78
g59
NtRp1201
(dp1202
g62
(dp1203
sg71
g1188
sg64
(lp1204
g57
(g58
g59
NtRp1205
(dp1206
g62
(dp1207
g70
I4
ssg71
g1201
sg64
(lp1208
S'HTTP/1.1'
p1209
asbasbasbag57
(g73
g59
NtRp1210
(dp1211
g62
(dp1212
sg71
g637
sg64
(lp1213
g57
(g78
g59
NtRp1214
(dp1215
g62
(dp1216
g82
g83
ssg71
g1210
sg64
(lp1217
S'server_software'
p1218
asbag57
(g78
g59
NtRp1219
(dp1220
g62
(dp1221
g89
g90
ssg71
g1210
sg64
(lp1222
S':'
asbag57
(g78
g59
NtRp1223
(dp1224
g62
(dp1225
sg71
g1210
sg64
(lp1226
g57
(g58
g59
NtRp1227
(dp1228
g62
(dp1229
g70
I4
ssg71
g1223
sg64
(lp1230
S'Rocket 1.2.4'
p1231
asbasbasbag57
(g73
g59
NtRp1232
(dp1233
g62
(dp1234
sg71
g637
sg64
(lp1235
g57
(g78
g59
NtRp1236
(dp1237
g62
(dp1238
g82
g83
ssg71
g1232
sg64
(lp1239
S'web2py_crontype'
p1240
asbag57
(g78
g59
NtRp1241
(dp1242
g62
(dp1243
g89
g90
ssg71
g1232
sg64
(lp1244
S':'
asbag57
(g78
g59
NtRp1245
(dp1246
g62
(dp1247
sg71
g1232
sg64
(lp1248
g57
(g58
g59
NtRp1249
(dp1250
g62
(dp1251
g70
I4
ssg71
g1245
sg64
(lp1252
S'hard'
p1253
asbasbasbag57
(g73
g59
NtRp1254
(dp1255
g62
(dp1256
sg71
g637
sg64
(lp1257
g57
(g78
g59
NtRp1258
(dp1259
g62
(dp1260
g82
g83
ssg71
g1254
sg64
(lp1261
S'web2py_path'
p1262
asbag57
(g78
g59
NtRp1263
(dp1264
g62
(dp1265
g89
g90
ssg71
g1254
sg64
(lp1266
S':'
asbag57
(g78
g59
NtRp1267
(dp1268
g62
(dp1269
sg71
g1254
sg64
(lp1270
g57
(g58
g59
NtRp1271
(dp1272
g62
(dp1273
g70
I4
ssg71
g1267
sg64
(lp1274
g684
asbasbasbag57
(g73
g59
NtRp1275
(dp1276
g62
(dp1277
sg71
g637
sg64
(lp1278
g57
(g78
g59
NtRp1279
(dp1280
g62
(dp1281
g82
g83
ssg71
g1275
sg64
(lp1282
S'web2py_version'
p1283
asbag57
(g78
g59
NtRp1284
(dp1285
g62
(dp1286
g89
g90
ssg71
g1275
sg64
(lp1287
S':'
asbag57
(g78
g59
NtRp1288
(dp1289
g62
(dp1290
sg71
g1275
sg64
(lp1291
g57
(g58
g59
NtRp1292
(dp1293
g62
(dp1294
g70
I4
ssg71
g1288
sg64
(lp1295
g57
(g66
g59
NtRp1296
(dp1297
g62
(dp1298
g70
I3
ssg71
Nsg64
(lp1299
g57
(g73
g59
NtRp1300
(dp1301
g62
(dp1302
sg71
g1296
sg64
(lp1303
g57
(g78
g59
NtRp1304
(dp1305
g62
(dp1306
sg71
g1300
sg64
(lp1307
g57
(g58
g59
NtRp1308
(dp1309
g62
(dp1310
g70
I3
ssg71
g1304
sg64
(lp1311
S'1'
asbasbasbag57
(g73
g59
NtRp1312
(dp1313
g62
(dp1314
sg71
g1296
sg64
(lp1315
g57
(g78
g59
NtRp1316
(dp1317
g62
(dp1318
sg71
g1312
sg64
(lp1319
g57
(g58
g59
NtRp1320
(dp1321
g62
(dp1322
g70
I3
ssg71
g1316
sg64
(lp1323
S'99'
p1324
asbasbasbag57
(g73
g59
NtRp1325
(dp1326
g62
(dp1327
sg71
g1296
sg64
(lp1328
g57
(g78
g59
NtRp1329
(dp1330
g62
(dp1331
sg71
g1325
sg64
(lp1332
g57
(g58
g59
NtRp1333
(dp1334
g62
(dp1335
g70
I3
ssg71
g1329
sg64
(lp1336
S'7'
asbasbasbag57
(g73
g59
NtRp1337
(dp1338
g62
(dp1339
sg71
g1296
sg64
(lp1340
g57
(g78
g59
NtRp1341
(dp1342
g62
(dp1343
sg71
g1337
sg64
(lp1344
g57
(g58
g59
NtRp1345
(dp1346
g62
(dp1347
g70
I3
ssg71
g1341
sg64
(lp1348
S'datetime.datetime(2012, 3, 4, 22, 12, 8)'
p1349
asbasbasbag57
(g73
g59
NtRp1350
(dp1351
g62
(dp1352
sg71
g1296
sg64
(lp1353
g57
(g78
g59
NtRp1354
(dp1355
g62
(dp1356
sg71
g1350
sg64
(lp1357
g57
(g58
g59
NtRp1358
(dp1359
g62
(dp1360
g70
I3
ssg71
g1354
sg64
(lp1361
S'stable'
p1362
asbasbasbasbasbasbasbag57
(g73
g59
NtRp1363
(dp1364
g62
(dp1365
sg71
g637
sg64
(lp1366
g57
(g78
g59
NtRp1367
(dp1368
g62
(dp1369
g82
g83
ssg71
g1363
sg64
(lp1370
S'wsgi_errors'
p1371
asbag57
(g78
g59
NtRp1372
(dp1373
g62
(dp1374
g89
g90
ssg71
g1363
sg64
(lp1375
S':'
asbag57
(g78
g59
NtRp1376
(dp1377
g62
(dp1378
sg71
g1363
sg64
(lp1379
g57
(g58
g59
NtRp1380
(dp1381
g62
(dp1382
g70
I4
ssg71
g1376
sg64
(lp1383
S"<open file '<stderr>', mode 'w' at 0xb75170d0>"
p1384
asbasbasbag57
(g73
g59
NtRp1385
(dp1386
g62
(dp1387
sg71
g637
sg64
(lp1388
g57
(g78
g59
NtRp1389
(dp1390
g62
(dp1391
g82
g83
ssg71
g1385
sg64
(lp1392
S'wsgi_file_wrapper'
p1393
asbag57
(g78
g59
NtRp1394
(dp1395
g62
(dp1396
g89
g90
ssg71
g1385
sg64
(lp1397
S':'
asbag57
(g78
g59
NtRp1398
(dp1399
g62
(dp1400
sg71
g1385
sg64
(lp1401
g57
(g58
g59
NtRp1402
(dp1403
g62
(dp1404
g70
I4
ssg71
g1398
sg64
(lp1405
S'<class wsgiref.util.FileWrapper at 0x8c8702c>'
p1406
asbasbasbag57
(g73
g59
NtRp1407
(dp1408
g62
(dp1409
sg71
g637
sg64
(lp1410
g57
(g78
g59
NtRp1411
(dp1412
g62
(dp1413
g82
g83
ssg71
g1407
sg64
(lp1414
S'wsgi_input'
p1415
asbag57
(g78
g59
NtRp1416
(dp1417
g62
(dp1418
g89
g90
ssg71
g1407
sg64
(lp1419
S':'
asbag57
(g78
g59
NtRp1420
(dp1421
g62
(dp1422
sg71
g1407
sg64
(lp1423
g57
(g58
g59
NtRp1424
(dp1425
g62
(dp1426
g70
I4
ssg71
g1420
sg64
(lp1427
S'<socket._fileobject object at 0xabf4fe6c>'
p1428
asbasbasbag57
(g73
g59
NtRp1429
(dp1430
g62
(dp1431
sg71
g637
sg64
(lp1432
g57
(g78
g59
NtRp1433
(dp1434
g62
(dp1435
g82
g83
ssg71
g1429
sg64
(lp1436
S'wsgi_multiprocess'
p1437
asbag57
(g78
g59
NtRp1438
(dp1439
g62
(dp1440
g89
g90
ssg71
g1429
sg64
(lp1441
S':'
asbag57
(g78
g59
NtRp1442
(dp1443
g62
(dp1444
sg71
g1429
sg64
(lp1445
g57
(g58
g59
NtRp1446
(dp1447
g62
(dp1448
g70
I4
ssg71
g1442
sg64
(lp1449
g100
asbasbasbag57
(g73
g59
NtRp1450
(dp1451
g62
(dp1452
sg71
g637
sg64
(lp1453
g57
(g78
g59
NtRp1454
(dp1455
g62
(dp1456
g82
g83
ssg71
g1450
sg64
(lp1457
S'wsgi_multithread'
p1458
asbag57
(g78
g59
NtRp1459
(dp1460
g62
(dp1461
g89
g90
ssg71
g1450
sg64
(lp1462
S':'
asbag57
(g78
g59
NtRp1463
(dp1464
g62
(dp1465
sg71
g1450
sg64
(lp1466
g57
(g58
g59
NtRp1467
(dp1468
g62
(dp1469
g70
I4
ssg71
g1463
sg64
(lp1470
S'True'
p1471
asbasbasbag57
(g73
g59
NtRp1472
(dp1473
g62
(dp1474
sg71
g637
sg64
(lp1475
g57
(g78
g59
NtRp1476
(dp1477
g62
(dp1478
g82
g83
ssg71
g1472
sg64
(lp1479
S'wsgi_run_once'
p1480
asbag57
(g78
g59
NtRp1481
(dp1482
g62
(dp1483
g89
g90
ssg71
g1472
sg64
(lp1484
S':'
asbag57
(g78
g59
NtRp1485
(dp1486
g62
(dp1487
sg71
g1472
sg64
(lp1488
g57
(g58
g59
NtRp1489
(dp1490
g62
(dp1491
g70
I4
ssg71
g1485
sg64
(lp1492
g100
asbasbasbag57
(g73
g59
NtRp1493
(dp1494
g62
(dp1495
sg71
g637
sg64
(lp1496
g57
(g78
g59
NtRp1497
(dp1498
g62
(dp1499
g82
g83
ssg71
g1493
sg64
(lp1500
S'wsgi_url_scheme'
p1501
asbag57
(g78
g59
NtRp1502
(dp1503
g62
(dp1504
g89
g90
ssg71
g1493
sg64
(lp1505
S':'
asbag57
(g78
g59
NtRp1506
(dp1507
g62
(dp1508
sg71
g1493
sg64
(lp1509
g57
(g58
g59
NtRp1510
(dp1511
g62
(dp1512
g70
I4
ssg71
g1506
sg64
(lp1513
S'http'
p1514
asbasbasbag57
(g73
g59
NtRp1515
(dp1516
g62
(dp1517
sg71
g637
sg64
(lp1518
g57
(g78
g59
NtRp1519
(dp1520
g62
(dp1521
g82
g83
ssg71
g1515
sg64
(lp1522
S'wsgi_version'
p1523
asbag57
(g78
g59
NtRp1524
(dp1525
g62
(dp1526
g89
g90
ssg71
g1515
sg64
(lp1527
S':'
asbag57
(g78
g59
NtRp1528
(dp1529
g62
(dp1530
sg71
g1515
sg64
(lp1531
g57
(g58
g59
NtRp1532
(dp1533
g62
(dp1534
g70
I4
ssg71
g1528
sg64
(lp1535
g57
(g66
g59
NtRp1536
(dp1537
g62
(dp1538
g70
I3
ssg71
Nsg64
(lp1539
g57
(g73
g59
NtRp1540
(dp1541
g62
(dp1542
sg71
g1536
sg64
(lp1543
g57
(g78
g59
NtRp1544
(dp1545
g62
(dp1546
sg71
g1540
sg64
(lp1547
g57
(g58
g59
NtRp1548
(dp1549
g62
(dp1550
g70
I3
ssg71
g1544
sg64
(lp1551
S'1'
asbasbasbag57
(g73
g59
NtRp1552
(dp1553
g62
(dp1554
sg71
g1536
sg64
(lp1555
g57
(g78
g59
NtRp1556
(dp1557
g62
(dp1558
sg71
g1552
sg64
(lp1559
g57
(g58
g59
NtRp1560
(dp1561
g62
(dp1562
g70
I3
ssg71
g1556
sg64
(lp1563
S'0'
asbasbasbasbasbasbasbasbasbasbasbag57
(g73
g59
NtRp1564
(dp1565
g62
(dp1566
sg71
g67
sg64
(lp1567
g57
(g78
g59
NtRp1568
(dp1569
g62
(dp1570
g82
g83
ssg71
g1564
sg64
(lp1571
S'extension'
p1572
asbag57
(g78
g59
NtRp1573
(dp1574
g62
(dp1575
g89
g90
ssg71
g1564
sg64
(lp1576
S':'
asbag57
(g78
g59
NtRp1577
(dp1578
g62
(dp1579
sg71
g1564
sg64
(lp1580
g57
(g58
g59
NtRp1581
(dp1582
g62
(dp1583
g70
I5
ssg71
g1577
sg64
(lp1584
S'html'
p1585
asbasbasbag57
(g73
g59
NtRp1586
(dp1587
g62
(dp1588
sg71
g67
sg64
(lp1589
g57
(g78
g59
NtRp1590
(dp1591
g62
(dp1592
g82
g83
ssg71
g1586
sg64
(lp1593
S'folder'
p1594
asbag57
(g78
g59
NtRp1595
(dp1596
g62
(dp1597
g89
g90
ssg71
g1586
sg64
(lp1598
S':'
asbag57
(g78
g59
NtRp1599
(dp1600
g62
(dp1601
sg71
g1586
sg64
(lp1602
g57
(g58
g59
NtRp1603
(dp1604
g62
(dp1605
g70
I5
ssg71
g1599
sg64
(lp1606
S'/home/nazrul/web2py/applications/isas/'
p1607
asbasbasbag57
(g73
g59
NtRp1608
(dp1609
g62
(dp1610
sg71
g67
sg64
(lp1611
g57
(g78
g59
NtRp1612
(dp1613
g62
(dp1614
g82
g83
ssg71
g1608
sg64
(lp1615
S'function'
p1616
asbag57
(g78
g59
NtRp1617
(dp1618
g62
(dp1619
g89
g90
ssg71
g1608
sg64
(lp1620
S':'
asbag57
(g78
g59
NtRp1621
(dp1622
g62
(dp1623
sg71
g1608
sg64
(lp1624
g57
(g58
g59
NtRp1625
(dp1626
g62
(dp1627
g70
I5
ssg71
g1621
sg64
(lp1628
S'index'
p1629
asbasbasbag57
(g73
g59
NtRp1630
(dp1631
g62
(dp1632
sg71
g67
sg64
(lp1633
g57
(g78
g59
NtRp1634
(dp1635
g62
(dp1636
g82
g83
ssg71
g1630
sg64
(lp1637
S'get_vars'
p1638
asbag57
(g78
g59
NtRp1639
(dp1640
g62
(dp1641
g89
g90
ssg71
g1630
sg64
(lp1642
S':'
asbag57
(g78
g59
NtRp1643
(dp1644
g62
(dp1645
sg71
g1630
sg64
(lp1646
g57
(g58
g59
NtRp1647
(dp1648
g62
(dp1649
g70
I5
ssg71
g1643
sg64
(lp1650
g57
(g66
g59
NtRp1651
(dp1652
g62
(dp1653
g70
I4
ssg71
Nsg64
(lp1654
sbasbasbasbag57
(g73
g59
NtRp1655
(dp1656
g62
(dp1657
sg71
g67
sg64
(lp1658
g57
(g78
g59
NtRp1659
(dp1660
g62
(dp1661
g82
g83
ssg71
g1655
sg64
(lp1662
S'global_settings'
p1663
asbag57
(g78
g59
NtRp1664
(dp1665
g62
(dp1666
g89
g90
ssg71
g1655
sg64
(lp1667
S':'
asbag57
(g78
g59
NtRp1668
(dp1669
g62
(dp1670
sg71
g1655
sg64
(lp1671
g57
(g58
g59
NtRp1672
(dp1673
g62
(dp1674
g70
I5
ssg71
g1668
sg64
(lp1675
g57
(g66
g59
NtRp1676
(dp1677
g62
(dp1678
g70
I4
ssg71
Nsg64
(lp1679
g57
(g73
g59
NtRp1680
(dp1681
g62
(dp1682
sg71
g1676
sg64
(lp1683
g57
(g78
g59
NtRp1684
(dp1685
g62
(dp1686
g82
g83
ssg71
g1680
sg64
(lp1687
g649
asbag57
(g78
g59
NtRp1688
(dp1689
g62
(dp1690
g89
g90
ssg71
g1680
sg64
(lp1691
S':'
asbag57
(g78
g59
NtRp1692
(dp1693
g62
(dp1694
sg71
g1680
sg64
(lp1695
g57
(g58
g59
NtRp1696
(dp1697
g62
(dp1698
g70
I4
ssg71
g1692
sg64
(lp1699
S"set(['/home/nazrul/web2py/applications/isas3/', '/home/nazrul/web2py/applications/welcome/', '/home/nazrul/web2py/applications/isas/', '/home/nazrul/web2py/applications/admin/'])"
p1700
asbasbasbag57
(g73
g59
NtRp1701
(dp1702
g62
(dp1703
sg71
g1676
sg64
(lp1704
g57
(g78
g59
NtRp1705
(dp1706
g62
(dp1707
g82
g83
ssg71
g1701
sg64
(lp1708
g671
asbag57
(g78
g59
NtRp1709
(dp1710
g62
(dp1711
g89
g90
ssg71
g1701
sg64
(lp1712
S':'
asbag57
(g78
g59
NtRp1713
(dp1714
g62
(dp1715
sg71
g1701
sg64
(lp1716
g57
(g58
g59
NtRp1717
(dp1718
g62
(dp1719
g70
I4
ssg71
g1713
sg64
(lp1720
g684
asbasbasbag57
(g73
g59
NtRp1721
(dp1722
g62
(dp1723
sg71
g1676
sg64
(lp1724
g57
(g78
g59
NtRp1725
(dp1726
g62
(dp1727
g82
g83
ssg71
g1721
sg64
(lp1728
g693
asbag57
(g78
g59
NtRp1729
(dp1730
g62
(dp1731
g89
g90
ssg71
g1721
sg64
(lp1732
S':'
asbag57
(g78
g59
NtRp1733
(dp1734
g62
(dp1735
sg71
g1721
sg64
(lp1736
g57
(g58
g59
NtRp1737
(dp1738
g62
(dp1739
g70
I4
ssg71
g1733
sg64
(lp1740
g57
(g66
g59
NtRp1741
(dp1742
g62
(dp1743
g70
I3
ssg71
Nsg64
(lp1744
sbasbasbasbag57
(g73
g59
NtRp1745
(dp1746
g62
(dp1747
sg71
g1676
sg64
(lp1748
g57
(g78
g59
NtRp1749
(dp1750
g62
(dp1751
g82
g83
ssg71
g1745
sg64
(lp1752
g718
asbag57
(g78
g59
NtRp1753
(dp1754
g62
(dp1755
g89
g90
ssg71
g1745
sg64
(lp1756
S':'
asbag57
(g78
g59
NtRp1757
(dp1758
g62
(dp1759
sg71
g1745
sg64
(lp1760
g57
(g58
g59
NtRp1761
(dp1762
g62
(dp1763
g70
I4
ssg71
g1757
sg64
(lp1764
S"<Values at 0x8ca5acc: {'verbose': False, 'ip': '127.0.0.1', 'shutdown_timeout': 5, 'taskbar': False, 'nocron': False, 'pid_filename': 'httpserver.pid', 'maxthreads': None, 'softcron': False, 'server_name': 'nazrul', 'bpython': False, 'nogui': False, 'port': 8000, 'extcron': False, 'debuglevel': 30, 'test': None, 'folder': '/home/nazrul/web2py', 'config': '', 'import_models': False, 'winservice': '', 'shell': None, 'run': '', 'log_filename': 'httpserver.log', 'args': [''], 'socket_timeout': 5, 'ssl_ca_certificate': None, 'scheduler': None, 'profiler_filename': None, 'ssl_private_key': '', 'password': '<ask>', 'request_queue_size': 5, 'ssl_certificate': '', 'cronjob': False, 'numthreads': None, 'quiet': False, 'interfaces': None, 'minthreads': None, 'timeout': 10, 'plain': False, 'nobanner': False}>"
p1765
asbasbasbag57
(g73
g59
NtRp1766
(dp1767
g62
(dp1768
sg71
g1676
sg64
(lp1769
g57
(g78
g59
NtRp1770
(dp1771
g62
(dp1772
g82
g83
ssg71
g1766
sg64
(lp1773
g740
asbag57
(g78
g59
NtRp1774
(dp1775
g62
(dp1776
g89
g90
ssg71
g1766
sg64
(lp1777
S':'
asbag57
(g78
g59
NtRp1778
(dp1779
g62
(dp1780
sg71
g1766
sg64
(lp1781
g57
(g58
g59
NtRp1782
(dp1783
g62
(dp1784
g70
I4
ssg71
g1778
sg64
(lp1785
S'set([])'
p1786
asbasbasbag57
(g73
g59
NtRp1787
(dp1788
g62
(dp1789
sg71
g1676
sg64
(lp1790
g57
(g78
g59
NtRp1791
(dp1792
g62
(dp1793
g82
g83
ssg71
g1787
sg64
(lp1794
g762
asbag57
(g78
g59
NtRp1795
(dp1796
g62
(dp1797
g89
g90
ssg71
g1787
sg64
(lp1798
S':'
asbag57
(g78
g59
NtRp1799
(dp1800
g62
(dp1801
sg71
g1787
sg64
(lp1802
g57
(g58
g59
NtRp1803
(dp1804
g62
(dp1805
g70
I4
ssg71
g1799
sg64
(lp1806
g100
asbasbasbag57
(g73
g59
NtRp1807
(dp1808
g62
(dp1809
sg71
g1676
sg64
(lp1810
g57
(g78
g59
NtRp1811
(dp1812
g62
(dp1813
g82
g83
ssg71
g1807
sg64
(lp1814
g783
asbag57
(g78
g59
NtRp1815
(dp1816
g62
(dp1817
g89
g90
ssg71
g1807
sg64
(lp1818
S':'
asbag57
(g78
g59
NtRp1819
(dp1820
g62
(dp1821
sg71
g1807
sg64
(lp1822
g57
(g58
g59
NtRp1823
(dp1824
g62
(dp1825
g70
I4
ssg71
g1819
sg64
(lp1826
g796
asbasbasbag57
(g73
g59
NtRp1827
(dp1828
g62
(dp1829
sg71
g1676
sg64
(lp1830
g57
(g78
g59
NtRp1831
(dp1832
g62
(dp1833
g82
g83
ssg71
g1827
sg64
(lp1834
g981
asbag57
(g78
g59
NtRp1835
(dp1836
g62
(dp1837
g89
g90
ssg71
g1827
sg64
(lp1838
S':'
asbag57
(g78
g59
NtRp1839
(dp1840
g62
(dp1841
sg71
g1827
sg64
(lp1842
g57
(g58
g59
NtRp1843
(dp1844
g62
(dp1845
g70
I4
ssg71
g1839
sg64
(lp1846
g100
asbasbasbag57
(g73
g59
NtRp1847
(dp1848
g62
(dp1849
sg71
g1676
sg64
(lp1850
g57
(g78
g59
NtRp1851
(dp1852
g62
(dp1853
g82
g83
ssg71
g1847
sg64
(lp1854
g1002
asbag57
(g78
g59
NtRp1855
(dp1856
g62
(dp1857
g89
g90
ssg71
g1847
sg64
(lp1858
S':'
asbag57
(g78
g59
NtRp1859
(dp1860
g62
(dp1861
sg71
g1847
sg64
(lp1862
g57
(g58
g59
NtRp1863
(dp1864
g62
(dp1865
g70
I4
ssg71
g1859
sg64
(lp1866
g100
asbasbasbag57
(g73
g59
NtRp1867
(dp1868
g62
(dp1869
sg71
g1676
sg64
(lp1870
g57
(g78
g59
NtRp1871
(dp1872
g62
(dp1873
g82
g83
ssg71
g1867
sg64
(lp1874
g1240
asbag57
(g78
g59
NtRp1875
(dp1876
g62
(dp1877
g89
g90
ssg71
g1867
sg64
(lp1878
S':'
asbag57
(g78
g59
NtRp1879
(dp1880
g62
(dp1881
sg71
g1867
sg64
(lp1882
g57
(g58
g59
NtRp1883
(dp1884
g62
(dp1885
g70
I4
ssg71
g1879
sg64
(lp1886
g1253
asbasbasbag57
(g73
g59
NtRp1887
(dp1888
g62
(dp1889
sg71
g1676
sg64
(lp1890
g57
(g78
g59
NtRp1891
(dp1892
g62
(dp1893
g82
g83
ssg71
g1887
sg64
(lp1894
g1283
asbag57
(g78
g59
NtRp1895
(dp1896
g62
(dp1897
g89
g90
ssg71
g1887
sg64
(lp1898
S':'
asbag57
(g78
g59
NtRp1899
(dp1900
g62
(dp1901
sg71
g1887
sg64
(lp1902
g57
(g58
g59
NtRp1903
(dp1904
g62
(dp1905
g70
I4
ssg71
g1899
sg64
(lp1906
g57
(g66
g59
NtRp1907
(dp1908
g62
(dp1909
g70
I3
ssg71
Nsg64
(lp1910
g57
(g73
g59
NtRp1911
(dp1912
g62
(dp1913
sg71
g1907
sg64
(lp1914
g57
(g78
g59
NtRp1915
(dp1916
g62
(dp1917
sg71
g1911
sg64
(lp1918
g57
(g58
g59
NtRp1919
(dp1920
g62
(dp1921
g70
I3
ssg71
g1915
sg64
(lp1922
S'1'
asbasbasbag57
(g73
g59
NtRp1923
(dp1924
g62
(dp1925
sg71
g1907
sg64
(lp1926
g57
(g78
g59
NtRp1927
(dp1928
g62
(dp1929
sg71
g1923
sg64
(lp1930
g57
(g58
g59
NtRp1931
(dp1932
g62
(dp1933
g70
I3
ssg71
g1927
sg64
(lp1934
S'99'
p1935
asbasbasbag57
(g73
g59
NtRp1936
(dp1937
g62
(dp1938
sg71
g1907
sg64
(lp1939
g57
(g78
g59
NtRp1940
(dp1941
g62
(dp1942
sg71
g1936
sg64
(lp1943
g57
(g58
g59
NtRp1944
(dp1945
g62
(dp1946
g70
I3
ssg71
g1940
sg64
(lp1947
S'7'
asbasbasbag57
(g73
g59
NtRp1948
(dp1949
g62
(dp1950
sg71
g1907
sg64
(lp1951
g57
(g78
g59
NtRp1952
(dp1953
g62
(dp1954
sg71
g1948
sg64
(lp1955
g57
(g58
g59
NtRp1956
(dp1957
g62
(dp1958
g70
I3
ssg71
g1952
sg64
(lp1959
S'datetime.datetime(2012, 3, 4, 22, 12, 8)'
p1960
asbasbasbag57
(g73
g59
NtRp1961
(dp1962
g62
(dp1963
sg71
g1907
sg64
(lp1964
g57
(g78
g59
NtRp1965
(dp1966
g62
(dp1967
sg71
g1961
sg64
(lp1968
g57
(g58
g59
NtRp1969
(dp1970
g62
(dp1971
g70
I3
ssg71
g1965
sg64
(lp1972
g1362
asbasbasbasbasbasbasbasbasbasbasbag57
(g73
g59
NtRp1973
(dp1974
g62
(dp1975
sg71
g67
sg64
(lp1976
g57
(g78
g59
NtRp1977
(dp1978
g62
(dp1979
g82
g83
ssg71
g1973
sg64
(lp1980
S'is_https'
p1981
asbag57
(g78
g59
NtRp1982
(dp1983
g62
(dp1984
g89
g90
ssg71
g1973
sg64
(lp1985
S':'
asbag57
(g78
g59
NtRp1986
(dp1987
g62
(dp1988
sg71
g1973
sg64
(lp1989
g57
(g58
g59
NtRp1990
(dp1991
g62
(dp1992
g70
I5
ssg71
g1986
sg64
(lp1993
g100
asbasbasbag57
(g73
g59
NtRp1994
(dp1995
g62
(dp1996
sg71
g67
sg64
(lp1997
g57
(g78
g59
NtRp1998
(dp1999
g62
(dp2000
g82
g83
ssg71
g1994
sg64
(lp2001
S'is_local'
p2002
asbag57
(g78
g59
NtRp2003
(dp2004
g62
(dp2005
g89
g90
ssg71
g1994
sg64
(lp2006
S':'
asbag57
(g78
g59
NtRp2007
(dp2008
g62
(dp2009
sg71
g1994
sg64
(lp2010
g57
(g58
g59
NtRp2011
(dp2012
g62
(dp2013
g70
I5
ssg71
g2007
sg64
(lp2014
g1471
asbasbasbag57
(g73
g59
NtRp2015
(dp2016
g62
(dp2017
sg71
g67
sg64
(lp2018
g57
(g78
g59
NtRp2019
(dp2020
g62
(dp2021
g82
g83
ssg71
g2015
sg64
(lp2022
S'is_restful'
p2023
asbag57
(g78
g59
NtRp2024
(dp2025
g62
(dp2026
g89
g90
ssg71
g2015
sg64
(lp2027
S':'
asbag57
(g78
g59
NtRp2028
(dp2029
g62
(dp2030
sg71
g2015
sg64
(lp2031
g57
(g58
g59
NtRp2032
(dp2033
g62
(dp2034
g70
I5
ssg71
g2028
sg64
(lp2035
g100
asbasbasbag57
(g73
g59
NtRp2036
(dp2037
g62
(dp2038
sg71
g67
sg64
(lp2039
g57
(g78
g59
NtRp2040
(dp2041
g62
(dp2042
g82
g83
ssg71
g2036
sg64
(lp2043
S'now'
p2044
asbag57
(g78
g59
NtRp2045
(dp2046
g62
(dp2047
g89
g90
ssg71
g2036
sg64
(lp2048
S':'
asbag57
(g78
g59
NtRp2049
(dp2050
g62
(dp2051
sg71
g2036
sg64
(lp2052
g57
(g58
g59
NtRp2053
(dp2054
g62
(dp2055
g70
I5
ssg71
g2049
sg64
(lp2056
S'datetime.datetime(2014, 3, 20, 6, 59, 32, 914240)'
p2057
asbasbasbag57
(g73
g59
NtRp2058
(dp2059
g62
(dp2060
sg71
g67
sg64
(lp2061
g57
(g78
g59
NtRp2062
(dp2063
g62
(dp2064
g82
g83
ssg71
g2058
sg64
(lp2065
S'post_vars'
p2066
asbag57
(g78
g59
NtRp2067
(dp2068
g62
(dp2069
g89
g90
ssg71
g2058
sg64
(lp2070
S':'
asbag57
(g78
g59
NtRp2071
(dp2072
g62
(dp2073
sg71
g2058
sg64
(lp2074
g57
(g58
g59
NtRp2075
(dp2076
g62
(dp2077
g70
I5
ssg71
g2071
sg64
(lp2078
g57
(g66
g59
NtRp2079
(dp2080
g62
(dp2081
g70
I4
ssg71
Nsg64
(lp2082
sbasbasbasbag57
(g73
g59
NtRp2083
(dp2084
g62
(dp2085
sg71
g67
sg64
(lp2086
g57
(g78
g59
NtRp2087
(dp2088
g62
(dp2089
g82
g83
ssg71
g2083
sg64
(lp2090
S'url'
p2091
asbag57
(g78
g59
NtRp2092
(dp2093
g62
(dp2094
g89
g90
ssg71
g2083
sg64
(lp2095
S':'
asbag57
(g78
g59
NtRp2096
(dp2097
g62
(dp2098
sg71
g2083
sg64
(lp2099
g57
(g58
g59
NtRp2100
(dp2101
g62
(dp2102
g70
I5
ssg71
g2096
sg64
(lp2103
S'/isas/default/index'
p2104
asbasbasbag57
(g73
g59
NtRp2105
(dp2106
g62
(dp2107
sg71
g67
sg64
(lp2108
g57
(g78
g59
NtRp2109
(dp2110
g62
(dp2111
g82
g83
ssg71
g2105
sg64
(lp2112
S'utcnow'
p2113
asbag57
(g78
g59
NtRp2114
(dp2115
g62
(dp2116
g89
g90
ssg71
g2105
sg64
(lp2117
S':'
asbag57
(g78
g59
NtRp2118
(dp2119
g62
(dp2120
sg71
g2105
sg64
(lp2121
g57
(g58
g59
NtRp2122
(dp2123
g62
(dp2124
g70
I5
ssg71
g2118
sg64
(lp2125
S'datetime.datetime(2014, 3, 20, 1, 29, 32, 914277)'
p2126
asbasbasbag57
(g73
g59
NtRp2127
(dp2128
g62
(dp2129
sg71
g67
sg64
(lp2130
g57
(g78
g59
NtRp2131
(dp2132
g62
(dp2133
g82
g83
ssg71
g2127
sg64
(lp2134
S'uuid'
p2135
asbag57
(g78
g59
NtRp2136
(dp2137
g62
(dp2138
g89
g90
ssg71
g2127
sg64
(lp2139
S':'
asbag57
(g78
g59
NtRp2140
(dp2141
g62
(dp2142
sg71
g2127
sg64
(lp2143
g57
(g58
g59
NtRp2144
(dp2145
g62
(dp2146
g70
I5
ssg71
g2140
sg64
(lp2147
S'isas/127.0.0.1.2014-03-20.06-59-32.bda7a78c-5a4b-4114-a37d-3fb4b8874596'
p2148
asbasbasbag57
(g73
g59
NtRp2149
(dp2150
g62
(dp2151
sg71
g67
sg64
(lp2152
g57
(g78
g59
NtRp2153
(dp2154
g62
(dp2155
g82
g83
ssg71
g2149
sg64
(lp2156
S'vars'
p2157
asbag57
(g78
g59
NtRp2158
(dp2159
g62
(dp2160
g89
g90
ssg71
g2149
sg64
(lp2161
S':'
asbag57
(g78
g59
NtRp2162
(dp2163
g62
(dp2164
sg71
g2149
sg64
(lp2165
g57
(g58
g59
NtRp2166
(dp2167
g62
(dp2168
g70
I5
ssg71
g2162
sg64
(lp2169
g57
(g66
g59
NtRp2170
(dp2171
g62
(dp2172
g70
I4
ssg71
Nsg64
(lp2173
sbasbasbasbag57
(g73
g59
NtRp2174
(dp2175
g62
(dp2176
sg71
g67
sg64
(lp2177
g57
(g78
g59
NtRp2178
(dp2179
g62
(dp2180
g82
g83
ssg71
g2174
sg64
(lp2181
S'wsgi'
p2182
asbag57
(g78
g59
NtRp2183
(dp2184
g62
(dp2185
g89
g90
ssg71
g2174
sg64
(lp2186
S':'
asbag57
(g78
g59
NtRp2187
(dp2188
g62
(dp2189
sg71
g2174
sg64
(lp2190
g57
(g58
g59
NtRp2191
(dp2192
g62
(dp2193
g70
I5
ssg71
g2187
sg64
(lp2194
g57
(g66
g59
NtRp2195
(dp2196
g62
(dp2197
g70
I4
ssg71
Nsg64
(lp2198
g57
(g73
g59
NtRp2199
(dp2200
g62
(dp2201
sg71
g2195
sg64
(lp2202
g57
(g78
g59
NtRp2203
(dp2204
g62
(dp2205
g82
g83
ssg71
g2199
sg64
(lp2206
S'environ'
p2207
asbag57
(g78
g59
NtRp2208
(dp2209
g62
(dp2210
g89
g90
ssg71
g2199
sg64
(lp2211
S':'
asbag57
(g78
g59
NtRp2212
(dp2213
g62
(dp2214
sg71
g2199
sg64
(lp2215
g57
(g58
g59
NtRp2216
(dp2217
g62
(dp2218
g70
I4
ssg71
g2212
sg64
(lp2219
g57
(g66
g59
NtRp2220
(dp2221
g62
(dp2222
g70
I3
ssg71
Nsg64
(lp2223
g57
(g73
g59
NtRp2224
(dp2225
g62
(dp2226
sg71
g2220
sg64
(lp2227
g57
(g78
g59
NtRp2228
(dp2229
g62
(dp2230
g82
g83
ssg71
g2224
sg64
(lp2231
S'HTTP_ACCEPT'
p2232
asbag57
(g78
g59
NtRp2233
(dp2234
g62
(dp2235
g89
g90
ssg71
g2224
sg64
(lp2236
S':'
asbag57
(g78
g59
NtRp2237
(dp2238
g62
(dp2239
sg71
g2224
sg64
(lp2240
g57
(g58
g59
NtRp2241
(dp2242
g62
(dp2243
g70
I3
ssg71
g2237
sg64
(lp2244
g818
asbasbasbag57
(g73
g59
NtRp2245
(dp2246
g62
(dp2247
sg71
g2220
sg64
(lp2248
g57
(g78
g59
NtRp2249
(dp2250
g62
(dp2251
g82
g83
ssg71
g2245
sg64
(lp2252
S'HTTP_ACCEPT_ENCODING'
p2253
asbag57
(g78
g59
NtRp2254
(dp2255
g62
(dp2256
g89
g90
ssg71
g2245
sg64
(lp2257
S':'
asbag57
(g78
g59
NtRp2258
(dp2259
g62
(dp2260
sg71
g2245
sg64
(lp2261
g57
(g58
g59
NtRp2262
(dp2263
g62
(dp2264
g70
I3
ssg71
g2258
sg64
(lp2265
g840
asbasbasbag57
(g73
g59
NtRp2266
(dp2267
g62
(dp2268
sg71
g2220
sg64
(lp2269
g57
(g78
g59
NtRp2270
(dp2271
g62
(dp2272
g82
g83
ssg71
g2266
sg64
(lp2273
S'HTTP_ACCEPT_LANGUAGE'
p2274
asbag57
(g78
g59
NtRp2275
(dp2276
g62
(dp2277
g89
g90
ssg71
g2266
sg64
(lp2278
S':'
asbag57
(g78
g59
NtRp2279
(dp2280
g62
(dp2281
sg71
g2266
sg64
(lp2282
g57
(g58
g59
NtRp2283
(dp2284
g62
(dp2285
g70
I3
ssg71
g2279
sg64
(lp2286
g862
asbasbasbag57
(g73
g59
NtRp2287
(dp2288
g62
(dp2289
sg71
g2220
sg64
(lp2290
g57
(g78
g59
NtRp2291
(dp2292
g62
(dp2293
g82
g83
ssg71
g2287
sg64
(lp2294
S'HTTP_CONNECTION'
p2295
asbag57
(g78
g59
NtRp2296
(dp2297
g62
(dp2298
g89
g90
ssg71
g2287
sg64
(lp2299
S':'
asbag57
(g78
g59
NtRp2300
(dp2301
g62
(dp2302
sg71
g2287
sg64
(lp2303
g57
(g58
g59
NtRp2304
(dp2305
g62
(dp2306
g70
I3
ssg71
g2300
sg64
(lp2307
g884
asbasbasbag57
(g73
g59
NtRp2308
(dp2309
g62
(dp2310
sg71
g2220
sg64
(lp2311
g57
(g78
g59
NtRp2312
(dp2313
g62
(dp2314
g82
g83
ssg71
g2308
sg64
(lp2315
S'HTTP_COOKIE'
p2316
asbag57
(g78
g59
NtRp2317
(dp2318
g62
(dp2319
g89
g90
ssg71
g2308
sg64
(lp2320
S':'
asbag57
(g78
g59
NtRp2321
(dp2322
g62
(dp2323
sg71
g2308
sg64
(lp2324
g57
(g58
g59
NtRp2325
(dp2326
g62
(dp2327
g70
I3
ssg71
g2321
sg64
(lp2328
g906
asbasbasbag57
(g73
g59
NtRp2329
(dp2330
g62
(dp2331
sg71
g2220
sg64
(lp2332
g57
(g78
g59
NtRp2333
(dp2334
g62
(dp2335
g82
g83
ssg71
g2329
sg64
(lp2336
S'HTTP_HOST'
p2337
asbag57
(g78
g59
NtRp2338
(dp2339
g62
(dp2340
g89
g90
ssg71
g2329
sg64
(lp2341
S':'
asbag57
(g78
g59
NtRp2342
(dp2343
g62
(dp2344
sg71
g2329
sg64
(lp2345
g57
(g58
g59
NtRp2346
(dp2347
g62
(dp2348
g70
I3
ssg71
g2342
sg64
(lp2349
g928
asbasbasbag57
(g73
g59
NtRp2350
(dp2351
g62
(dp2352
sg71
g2220
sg64
(lp2353
g57
(g78
g59
NtRp2354
(dp2355
g62
(dp2356
g82
g83
ssg71
g2350
sg64
(lp2357
S'HTTP_REFERER'
p2358
asbag57
(g78
g59
NtRp2359
(dp2360
g62
(dp2361
g89
g90
ssg71
g2350
sg64
(lp2362
S':'
asbag57
(g78
g59
NtRp2363
(dp2364
g62
(dp2365
sg71
g2350
sg64
(lp2366
g57
(g58
g59
NtRp2367
(dp2368
g62
(dp2369
g70
I3
ssg71
g2363
sg64
(lp2370
g950
asbasbasbag57
(g73
g59
NtRp2371
(dp2372
g62
(dp2373
sg71
g2220
sg64
(lp2374
g57
(g78
g59
NtRp2375
(dp2376
g62
(dp2377
g82
g83
ssg71
g2371
sg64
(lp2378
S'HTTP_USER_AGENT'
p2379
asbag57
(g78
g59
NtRp2380
(dp2381
g62
(dp2382
g89
g90
ssg71
g2371
sg64
(lp2383
S':'
asbag57
(g78
g59
NtRp2384
(dp2385
g62
(dp2386
sg71
g2371
sg64
(lp2387
g57
(g58
g59
NtRp2388
(dp2389
g62
(dp2390
g70
I3
ssg71
g2384
sg64
(lp2391
g972
asbasbasbag57
(g73
g59
NtRp2392
(dp2393
g62
(dp2394
sg71
g2220
sg64
(lp2395
g57
(g78
g59
NtRp2396
(dp2397
g62
(dp2398
g82
g83
ssg71
g2392
sg64
(lp2399
S'PATH_INFO'
p2400
asbag57
(g78
g59
NtRp2401
(dp2402
g62
(dp2403
g89
g90
ssg71
g2392
sg64
(lp2404
S':'
asbag57
(g78
g59
NtRp2405
(dp2406
g62
(dp2407
sg71
g2392
sg64
(lp2408
g57
(g58
g59
NtRp2409
(dp2410
g62
(dp2411
g70
I3
ssg71
g2405
sg64
(lp2412
g1036
asbasbasbag57
(g73
g59
NtRp2413
(dp2414
g62
(dp2415
sg71
g2220
sg64
(lp2416
g57
(g78
g59
NtRp2417
(dp2418
g62
(dp2419
g82
g83
ssg71
g2413
sg64
(lp2420
S'QUERY_STRING'
p2421
asbag57
(g78
g59
NtRp2422
(dp2423
g62
(dp2424
g89
g90
ssg71
g2413
sg64
(lp2425
S':'
asbag57
(g78
g59
NtRp2426
(dp2427
g62
(dp2428
sg71
g2413
sg64
(lp2429
g57
(g58
g59
NtRp2430
(dp2431
g62
(dp2432
g70
I3
ssg71
g2426
sg64
(lp2433
S''
asbasbasbag57
(g73
g59
NtRp2434
(dp2435
g62
(dp2436
sg71
g2220
sg64
(lp2437
g57
(g78
g59
NtRp2438
(dp2439
g62
(dp2440
g82
g83
ssg71
g2434
sg64
(lp2441
S'REMOTE_ADDR'
p2442
asbag57
(g78
g59
NtRp2443
(dp2444
g62
(dp2445
g89
g90
ssg71
g2434
sg64
(lp2446
S':'
asbag57
(g78
g59
NtRp2447
(dp2448
g62
(dp2449
sg71
g2434
sg64
(lp2450
g57
(g58
g59
NtRp2451
(dp2452
g62
(dp2453
g70
I3
ssg71
g2447
sg64
(lp2454
g190
asbasbasbag57
(g73
g59
NtRp2455
(dp2456
g62
(dp2457
sg71
g2220
sg64
(lp2458
g57
(g78
g59
NtRp2459
(dp2460
g62
(dp2461
g82
g83
ssg71
g2455
sg64
(lp2462
S'REMOTE_PORT'
p2463
asbag57
(g78
g59
NtRp2464
(dp2465
g62
(dp2466
g89
g90
ssg71
g2455
sg64
(lp2467
S':'
asbag57
(g78
g59
NtRp2468
(dp2469
g62
(dp2470
sg71
g2455
sg64
(lp2471
g57
(g58
g59
NtRp2472
(dp2473
g62
(dp2474
g70
I3
ssg71
g2468
sg64
(lp2475
g1100
asbasbasbag57
(g73
g59
NtRp2476
(dp2477
g62
(dp2478
sg71
g2220
sg64
(lp2479
g57
(g78
g59
NtRp2480
(dp2481
g62
(dp2482
g82
g83
ssg71
g2476
sg64
(lp2483
S'REQUEST_METHOD'
p2484
asbag57
(g78
g59
NtRp2485
(dp2486
g62
(dp2487
g89
g90
ssg71
g2476
sg64
(lp2488
S':'
asbag57
(g78
g59
NtRp2489
(dp2490
g62
(dp2491
sg71
g2476
sg64
(lp2492
g57
(g58
g59
NtRp2493
(dp2494
g62
(dp2495
g70
I3
ssg71
g2489
sg64
(lp2496
g1122
asbasbasbag57
(g73
g59
NtRp2497
(dp2498
g62
(dp2499
sg71
g2220
sg64
(lp2500
g57
(g78
g59
NtRp2501
(dp2502
g62
(dp2503
g82
g83
ssg71
g2497
sg64
(lp2504
S'SCRIPT_NAME'
p2505
asbag57
(g78
g59
NtRp2506
(dp2507
g62
(dp2508
g89
g90
ssg71
g2497
sg64
(lp2509
S':'
asbag57
(g78
g59
NtRp2510
(dp2511
g62
(dp2512
sg71
g2497
sg64
(lp2513
g57
(g58
g59
NtRp2514
(dp2515
g62
(dp2516
g70
I3
ssg71
g2510
sg64
(lp2517
S''
asbasbasbag57
(g73
g59
NtRp2518
(dp2519
g62
(dp2520
sg71
g2220
sg64
(lp2521
g57
(g78
g59
NtRp2522
(dp2523
g62
(dp2524
g82
g83
ssg71
g2518
sg64
(lp2525
S'SERVER_NAME'
p2526
asbag57
(g78
g59
NtRp2527
(dp2528
g62
(dp2529
g89
g90
ssg71
g2518
sg64
(lp2530
S':'
asbag57
(g78
g59
NtRp2531
(dp2532
g62
(dp2533
sg71
g2518
sg64
(lp2534
g57
(g58
g59
NtRp2535
(dp2536
g62
(dp2537
g70
I3
ssg71
g2531
sg64
(lp2538
g1165
asbasbasbag57
(g73
g59
NtRp2539
(dp2540
g62
(dp2541
sg71
g2220
sg64
(lp2542
g57
(g78
g59
NtRp2543
(dp2544
g62
(dp2545
g82
g83
ssg71
g2539
sg64
(lp2546
S'SERVER_PORT'
p2547
asbag57
(g78
g59
NtRp2548
(dp2549
g62
(dp2550
g89
g90
ssg71
g2539
sg64
(lp2551
S':'
asbag57
(g78
g59
NtRp2552
(dp2553
g62
(dp2554
sg71
g2539
sg64
(lp2555
g57
(g58
g59
NtRp2556
(dp2557
g62
(dp2558
g70
I3
ssg71
g2552
sg64
(lp2559
g1187
asbasbasbag57
(g73
g59
NtRp2560
(dp2561
g62
(dp2562
sg71
g2220
sg64
(lp2563
g57
(g78
g59
NtRp2564
(dp2565
g62
(dp2566
g82
g83
ssg71
g2560
sg64
(lp2567
S'SERVER_PROTOCOL'
p2568
asbag57
(g78
g59
NtRp2569
(dp2570
g62
(dp2571
g89
g90
ssg71
g2560
sg64
(lp2572
S':'
asbag57
(g78
g59
NtRp2573
(dp2574
g62
(dp2575
sg71
g2560
sg64
(lp2576
g57
(g58
g59
NtRp2577
(dp2578
g62
(dp2579
g70
I3
ssg71
g2573
sg64
(lp2580
g1209
asbasbasbag57
(g73
g59
NtRp2581
(dp2582
g62
(dp2583
sg71
g2220
sg64
(lp2584
g57
(g78
g59
NtRp2585
(dp2586
g62
(dp2587
g82
g83
ssg71
g2581
sg64
(lp2588
S'SERVER_SOFTWARE'
p2589
asbag57
(g78
g59
NtRp2590
(dp2591
g62
(dp2592
g89
g90
ssg71
g2581
sg64
(lp2593
S':'
asbag57
(g78
g59
NtRp2594
(dp2595
g62
(dp2596
sg71
g2581
sg64
(lp2597
g57
(g58
g59
NtRp2598
(dp2599
g62
(dp2600
g70
I3
ssg71
g2594
sg64
(lp2601
g1231
asbasbasbag57
(g73
g59
NtRp2602
(dp2603
g62
(dp2604
sg71
g2220
sg64
(lp2605
g57
(g78
g59
NtRp2606
(dp2607
g62
(dp2608
g82
g83
ssg71
g2602
sg64
(lp2609
S'wsgi.errors'
p2610
asbag57
(g78
g59
NtRp2611
(dp2612
g62
(dp2613
g89
g90
ssg71
g2602
sg64
(lp2614
S':'
asbag57
(g78
g59
NtRp2615
(dp2616
g62
(dp2617
sg71
g2602
sg64
(lp2618
g57
(g58
g59
NtRp2619
(dp2620
g62
(dp2621
g70
I3
ssg71
g2615
sg64
(lp2622
S"<open file '<stderr>', mode 'w' at 0xb75170d0>"
p2623
asbasbasbag57
(g73
g59
NtRp2624
(dp2625
g62
(dp2626
sg71
g2220
sg64
(lp2627
g57
(g78
g59
NtRp2628
(dp2629
g62
(dp2630
g82
g83
ssg71
g2624
sg64
(lp2631
S'wsgi.file_wrapper'
p2632
asbag57
(g78
g59
NtRp2633
(dp2634
g62
(dp2635
g89
g90
ssg71
g2624
sg64
(lp2636
S':'
asbag57
(g78
g59
NtRp2637
(dp2638
g62
(dp2639
sg71
g2624
sg64
(lp2640
g57
(g58
g59
NtRp2641
(dp2642
g62
(dp2643
g70
I3
ssg71
g2637
sg64
(lp2644
S'<class wsgiref.util.FileWrapper at 0x8c8702c>'
p2645
asbasbasbag57
(g73
g59
NtRp2646
(dp2647
g62
(dp2648
sg71
g2220
sg64
(lp2649
g57
(g78
g59
NtRp2650
(dp2651
g62
(dp2652
g82
g83
ssg71
g2646
sg64
(lp2653
S'wsgi.input'
p2654
asbag57
(g78
g59
NtRp2655
(dp2656
g62
(dp2657
g89
g90
ssg71
g2646
sg64
(lp2658
S':'
asbag57
(g78
g59
NtRp2659
(dp2660
g62
(dp2661
sg71
g2646
sg64
(lp2662
g57
(g58
g59
NtRp2663
(dp2664
g62
(dp2665
g70
I3
ssg71
g2659
sg64
(lp2666
S'<cStringIO.StringO object at 0xabf772a0>'
p2667
asbasbasbag57
(g73
g59
NtRp2668
(dp2669
g62
(dp2670
sg71
g2220
sg64
(lp2671
g57
(g78
g59
NtRp2672
(dp2673
g62
(dp2674
g82
g83
ssg71
g2668
sg64
(lp2675
S'wsgi.multiprocess'
p2676
asbag57
(g78
g59
NtRp2677
(dp2678
g62
(dp2679
g89
g90
ssg71
g2668
sg64
(lp2680
S':'
asbag57
(g78
g59
NtRp2681
(dp2682
g62
(dp2683
sg71
g2668
sg64
(lp2684
g57
(g58
g59
NtRp2685
(dp2686
g62
(dp2687
g70
I3
ssg71
g2681
sg64
(lp2688
g100
asbasbasbag57
(g73
g59
NtRp2689
(dp2690
g62
(dp2691
sg71
g2220
sg64
(lp2692
g57
(g78
g59
NtRp2693
(dp2694
g62
(dp2695
g82
g83
ssg71
g2689
sg64
(lp2696
S'wsgi.multithread'
p2697
asbag57
(g78
g59
NtRp2698
(dp2699
g62
(dp2700
g89
g90
ssg71
g2689
sg64
(lp2701
S':'
asbag57
(g78
g59
NtRp2702
(dp2703
g62
(dp2704
sg71
g2689
sg64
(lp2705
g57
(g58
g59
NtRp2706
(dp2707
g62
(dp2708
g70
I3
ssg71
g2702
sg64
(lp2709
g1471
asbasbasbag57
(g73
g59
NtRp2710
(dp2711
g62
(dp2712
sg71
g2220
sg64
(lp2713
g57
(g78
g59
NtRp2714
(dp2715
g62
(dp2716
g82
g83
ssg71
g2710
sg64
(lp2717
S'wsgi.run_once'
p2718
asbag57
(g78
g59
NtRp2719
(dp2720
g62
(dp2721
g89
g90
ssg71
g2710
sg64
(lp2722
S':'
asbag57
(g78
g59
NtRp2723
(dp2724
g62
(dp2725
sg71
g2710
sg64
(lp2726
g57
(g58
g59
NtRp2727
(dp2728
g62
(dp2729
g70
I3
ssg71
g2723
sg64
(lp2730
g100
asbasbasbag57
(g73
g59
NtRp2731
(dp2732
g62
(dp2733
sg71
g2220
sg64
(lp2734
g57
(g78
g59
NtRp2735
(dp2736
g62
(dp2737
g82
g83
ssg71
g2731
sg64
(lp2738
S'wsgi.url_scheme'
p2739
asbag57
(g78
g59
NtRp2740
(dp2741
g62
(dp2742
g89
g90
ssg71
g2731
sg64
(lp2743
S':'
asbag57
(g78
g59
NtRp2744
(dp2745
g62
(dp2746
sg71
g2731
sg64
(lp2747
g57
(g58
g59
NtRp2748
(dp2749
g62
(dp2750
g70
I3
ssg71
g2744
sg64
(lp2751
g1514
asbasbasbag57
(g73
g59
NtRp2752
(dp2753
g62
(dp2754
sg71
g2220
sg64
(lp2755
g57
(g78
g59
NtRp2756
(dp2757
g62
(dp2758
g82
g83
ssg71
g2752
sg64
(lp2759
S'wsgi.version'
p2760
asbag57
(g78
g59
NtRp2761
(dp2762
g62
(dp2763
g89
g90
ssg71
g2752
sg64
(lp2764
S':'
asbag57
(g78
g59
NtRp2765
(dp2766
g62
(dp2767
sg71
g2752
sg64
(lp2768
g57
(g58
g59
NtRp2769
(dp2770
g62
(dp2771
g70
I3
ssg71
g2765
sg64
(lp2772
S'1'
asbasbasbasbasbasbasbasbasbasbasbasbasbsS'frames'
p2773
(lp2774
(dp2775
S'file'
p2776
S'/usr/lib/pymodules/python2.7/gluon/restricted.py'
p2777
sS'dump'
p2778
(dp2779
S'environment'
p2780
S"{'A': <class 'gluon.html.A'>, 'Auth': <class 'gluon.tools.Auth'>, 'B': <class 'gluon.html.B'>, 'BEAUTIFY': <class 'gluon.html.BEAUTIFY'>, 'BODY': <class 'gluon.html.BODY'>, 'BR': <class 'gluon.html.BR'>, 'BUTTON': <class 'gluon.html.BUTTON'>, 'CAT': <class 'gluon.html.CAT'>, 'CENTER': <class 'gluon.html.CENTER'>, 'CLEANUP': <class 'gluon.validators.CLEANUP'>, ...}"
p2781
sS'ccode'
p2782
S'<code object <module> at 0xabf502a8, file "/home.../web2py/applications/isas/models/db.py", line 12>'
p2783
ssS'lnum'
p2784
I205
sS'lines'
p2785
(dp2786
I200
S'    try:'
p2787
sI201
S'        if type(code) == types.CodeType:'
p2788
sI202
S'            ccode = code'
p2789
sI203
S'        else:'
p2790
sI204
S'            ccode = compile2(code,layer)'
p2791
sI205
S'        exec ccode in environment'
p2792
sI206
S'    except HTTP:'
p2793
sI207
S'        raise'
p2794
sI208
S'    except RestrictedError:'
p2795
sI209
S'        # do not encapsulate (obfuscate) the original RestrictedError'
p2796
ssS'call'
p2797
S"(code='# -*- coding: utf-8 -*-\\n\\n#######################...ble auditing\\n# auth.enable_record_versioning(db)\\n', environment={'A': <class 'gluon.html.A'>, 'Auth': <class 'gluon.tools.Auth'>, 'B': <class 'gluon.html.B'>, 'BEAUTIFY': <class 'gluon.html.BEAUTIFY'>, 'BODY': <class 'gluon.html.BODY'>, 'BR': <class 'gluon.html.BR'>, 'BUTTON': <class 'gluon.html.BUTTON'>, 'CAT': <class 'gluon.html.CAT'>, 'CENTER': <class 'gluon.html.CENTER'>, 'CLEANUP': <class 'gluon.validators.CLEANUP'>, ...}, layer='/home/nazrul/web2py/applications/isas/models/db.py')"
p2798
sS'func'
p2799
S'restricted'
p2800
sa(dp2801
g2776
S'/home/nazrul/web2py/applications/isas/models/db.py'
p2802
sg2778
(dp2803
S'username'
p2804
S'undefined'
p2805
sS'builtinFalse'
p2806
g100
sS'builtinTrue'
p2807
g1471
sS'auth'
p2808
S'<gluon.tools.Auth object>'
p2809
sS'auth.define_tables'
p2810
S'<bound method Auth.define_tables of <gluon.tools.Auth object>>'
p2811
sS'signature'
p2812
g2805
ssg2784
I59
sg2785
(dp2813
I54
S"    #Field('year','year'),"
p2814
sI55
S"#    Field('Batch',requires=IS_IN_SET(['UG1','UG2','UG3','UG4'])),"
p2815
sI56
S"    #Field('date1','datetime',default=request.now,label='date'), #registration date -- defines age above"
p2816
sI57
S'\t\t#request.now gets current timestamp (at time of form filling); request.now.date() is current date'
p2817
sI58
S" #   Field('registration_key', length=512, writable=False, readable=False, default='')]"
p2818
sI59
S'auth.define_tables(username=True, signature=False)'
p2819
sI60
S''
sI61
S'mail = auth.settings.mailer'
p2820
sI62
S"mail.settings.server = 'smtp.gmail.com:587'"
p2821
sI63
S"mail.settings.sender = 'testisas989@gmail.com'"
p2822
ssg2797
S'()'
p2823
sg2799
S'<module>'
p2824
sasS'pyver'
p2825
S'Python 2.7.4: /usr/bin/python'
p2826
sS'session'
p2827
g57
(g58
g59
NtRp2828
(dp2829
g62
(dp2830
sg64
(lp2831
g57
(g66
g59
NtRp2832
(dp2833
g62
(dp2834
g70
I5
ssg71
Nsg64
(lp2835
sbasbsS'etype'
p2836
S"<type 'exceptions.TypeError'>"
p2837
sS'date'
p2838
S'Thu Mar 20 06:59:32 2014'
p2839
sS'response'
p2840
g57
(g58
g59
NtRp2841
(dp2842
g62
(dp2843
sg64
(lp2844
g57
(g66
g59
NtRp2845
(dp2846
g62
(dp2847
g70
I5
ssg71
Nsg64
(lp2848
g57
(g73
g59
NtRp2849
(dp2850
g62
(dp2851
sg71
g2845
sg64
(lp2852
g57
(g78
g59
NtRp2853
(dp2854
g62
(dp2855
g82
g83
ssg71
g2849
sg64
(lp2856
g155
asbag57
(g78
g59
NtRp2857
(dp2858
g62
(dp2859
g89
g90
ssg71
g2849
sg64
(lp2860
S':'
asbag57
(g78
g59
NtRp2861
(dp2862
g62
(dp2863
sg71
g2849
sg64
(lp2864
g57
(g58
g59
NtRp2865
(dp2866
g62
(dp2867
g70
I5
ssg71
g2861
sg64
(lp2868
S'<cStringIO.StringO object at 0xabf66440>'
p2869
asbasbasbag57
(g73
g59
NtRp2870
(dp2871
g62
(dp2872
sg71
g2845
sg64
(lp2873
g57
(g78
g59
NtRp2874
(dp2875
g62
(dp2876
g82
g83
ssg71
g2870
sg64
(lp2877
g221
asbag57
(g78
g59
NtRp2878
(dp2879
g62
(dp2880
g89
g90
ssg71
g2870
sg64
(lp2881
S':'
asbag57
(g78
g59
NtRp2882
(dp2883
g62
(dp2884
sg71
g2870
sg64
(lp2885
g57
(g58
g59
NtRp2886
(dp2887
g62
(dp2888
g70
I5
ssg71
g2882
sg64
(lp2889
g57
(g66
g59
NtRp2890
(dp2891
g62
(dp2892
g70
I4
ssg71
Nsg64
(lp2893
g57
(g73
g59
NtRp2894
(dp2895
g62
(dp2896
sg71
g2890
sg64
(lp2897
g57
(g78
g59
NtRp2898
(dp2899
g62
(dp2900
g82
g83
ssg71
g2894
sg64
(lp2901
S'session_id_isas'
p2902
asbag57
(g78
g59
NtRp2903
(dp2904
g62
(dp2905
g89
g90
ssg71
g2894
sg64
(lp2906
S':'
asbag57
(g78
g59
NtRp2907
(dp2908
g62
(dp2909
sg71
g2894
sg64
(lp2910
g57
(g58
g59
NtRp2911
(dp2912
g62
(dp2913
g70
I4
ssg71
g2907
sg64
(lp2914
g57
(g66
g59
NtRp2915
(dp2916
g62
(dp2917
g70
I3
ssg71
Nsg64
(lp2918
g57
(g73
g59
NtRp2919
(dp2920
g62
(dp2921
sg71
g2915
sg64
(lp2922
g57
(g78
g59
NtRp2923
(dp2924
g62
(dp2925
g82
g83
ssg71
g2919
sg64
(lp2926
g271
asbag57
(g78
g59
NtRp2927
(dp2928
g62
(dp2929
g89
g90
ssg71
g2919
sg64
(lp2930
S':'
asbag57
(g78
g59
NtRp2931
(dp2932
g62
(dp2933
sg71
g2919
sg64
(lp2934
g57
(g58
g59
NtRp2935
(dp2936
g62
(dp2937
g70
I3
ssg71
g2931
sg64
(lp2938
S''
asbasbasbag57
(g73
g59
NtRp2939
(dp2940
g62
(dp2941
sg71
g2915
sg64
(lp2942
g57
(g78
g59
NtRp2943
(dp2944
g62
(dp2945
g82
g83
ssg71
g2939
sg64
(lp2946
g292
asbag57
(g78
g59
NtRp2947
(dp2948
g62
(dp2949
g89
g90
ssg71
g2939
sg64
(lp2950
S':'
asbag57
(g78
g59
NtRp2951
(dp2952
g62
(dp2953
sg71
g2939
sg64
(lp2954
g57
(g58
g59
NtRp2955
(dp2956
g62
(dp2957
g70
I3
ssg71
g2951
sg64
(lp2958
S''
asbasbasbag57
(g73
g59
NtRp2959
(dp2960
g62
(dp2961
sg71
g2915
sg64
(lp2962
g57
(g78
g59
NtRp2963
(dp2964
g62
(dp2965
g82
g83
ssg71
g2959
sg64
(lp2966
g313
asbag57
(g78
g59
NtRp2967
(dp2968
g62
(dp2969
g89
g90
ssg71
g2959
sg64
(lp2970
S':'
asbag57
(g78
g59
NtRp2971
(dp2972
g62
(dp2973
sg71
g2959
sg64
(lp2974
g57
(g58
g59
NtRp2975
(dp2976
g62
(dp2977
g70
I3
ssg71
g2971
sg64
(lp2978
S''
asbasbasbag57
(g73
g59
NtRp2979
(dp2980
g62
(dp2981
sg71
g2915
sg64
(lp2982
g57
(g78
g59
NtRp2983
(dp2984
g62
(dp2985
g82
g83
ssg71
g2979
sg64
(lp2986
g334
asbag57
(g78
g59
NtRp2987
(dp2988
g62
(dp2989
g89
g90
ssg71
g2979
sg64
(lp2990
S':'
asbag57
(g78
g59
NtRp2991
(dp2992
g62
(dp2993
sg71
g2979
sg64
(lp2994
g57
(g58
g59
NtRp2995
(dp2996
g62
(dp2997
g70
I3
ssg71
g2991
sg64
(lp2998
S''
asbasbasbag57
(g73
g59
NtRp2999
(dp3000
g62
(dp3001
sg71
g2915
sg64
(lp3002
g57
(g78
g59
NtRp3003
(dp3004
g62
(dp3005
g82
g83
ssg71
g2999
sg64
(lp3006
g355
asbag57
(g78
g59
NtRp3007
(dp3008
g62
(dp3009
g89
g90
ssg71
g2999
sg64
(lp3010
S':'
asbag57
(g78
g59
NtRp3011
(dp3012
g62
(dp3013
sg71
g2999
sg64
(lp3014
g57
(g58
g59
NtRp3015
(dp3016
g62
(dp3017
g70
I3
ssg71
g3011
sg64
(lp3018
S''
asbasbasbag57
(g73
g59
NtRp3019
(dp3020
g62
(dp3021
sg71
g2915
sg64
(lp3022
g57
(g78
g59
NtRp3023
(dp3024
g62
(dp3025
g82
g83
ssg71
g3019
sg64
(lp3026
g376
asbag57
(g78
g59
NtRp3027
(dp3028
g62
(dp3029
g89
g90
ssg71
g3019
sg64
(lp3030
S':'
asbag57
(g78
g59
NtRp3031
(dp3032
g62
(dp3033
sg71
g3019
sg64
(lp3034
g57
(g58
g59
NtRp3035
(dp3036
g62
(dp3037
g70
I3
ssg71
g3031
sg64
(lp3038
S'/'
asbasbasbag57
(g73
g59
NtRp3039
(dp3040
g62
(dp3041
sg71
g2915
sg64
(lp3042
g57
(g78
g59
NtRp3043
(dp3044
g62
(dp3045
g82
g83
ssg71
g3039
sg64
(lp3046
g397
asbag57
(g78
g59
NtRp3047
(dp3048
g62
(dp3049
g89
g90
ssg71
g3039
sg64
(lp3050
S':'
asbag57
(g78
g59
NtRp3051
(dp3052
g62
(dp3053
sg71
g3039
sg64
(lp3054
g57
(g58
g59
NtRp3055
(dp3056
g62
(dp3057
g70
I3
ssg71
g3051
sg64
(lp3058
S''
asbasbasbag57
(g73
g59
NtRp3059
(dp3060
g62
(dp3061
sg71
g2915
sg64
(lp3062
g57
(g78
g59
NtRp3063
(dp3064
g62
(dp3065
g82
g83
ssg71
g3059
sg64
(lp3066
g418
asbag57
(g78
g59
NtRp3067
(dp3068
g62
(dp3069
g89
g90
ssg71
g3059
sg64
(lp3070
S':'
asbag57
(g78
g59
NtRp3071
(dp3072
g62
(dp3073
sg71
g3059
sg64
(lp3074
g57
(g58
g59
NtRp3075
(dp3076
g62
(dp3077
g70
I3
ssg71
g3071
sg64
(lp3078
S''
asbasbasbasbasbasbasbasbasbasbasbag57
(g73
g59
NtRp3079
(dp3080
g62
(dp3081
sg71
g2845
sg64
(lp3082
g57
(g78
g59
NtRp3083
(dp3084
g62
(dp3085
g82
g83
ssg71
g3079
sg64
(lp3086
S'delimiters'
p3087
asbag57
(g78
g59
NtRp3088
(dp3089
g62
(dp3090
g89
g90
ssg71
g3079
sg64
(lp3091
S':'
asbag57
(g78
g59
NtRp3092
(dp3093
g62
(dp3094
sg71
g3079
sg64
(lp3095
g57
(g58
g59
NtRp3096
(dp3097
g62
(dp3098
g70
I5
ssg71
g3092
sg64
(lp3099
g57
(g66
g59
NtRp3100
(dp3101
g62
(dp3102
g70
I4
ssg71
Nsg64
(lp3103
g57
(g73
g59
NtRp3104
(dp3105
g62
(dp3106
sg71
g3100
sg64
(lp3107
g57
(g78
g59
NtRp3108
(dp3109
g62
(dp3110
sg71
g3104
sg64
(lp3111
g57
(g58
g59
NtRp3112
(dp3113
g62
(dp3114
g70
I4
ssg71
g3108
sg64
(lp3115
S'{{'
p3116
asbasbasbag57
(g73
g59
NtRp3117
(dp3118
g62
(dp3119
sg71
g3100
sg64
(lp3120
g57
(g78
g59
NtRp3121
(dp3122
g62
(dp3123
sg71
g3117
sg64
(lp3124
g57
(g58
g59
NtRp3125
(dp3126
g62
(dp3127
g70
I4
ssg71
g3121
sg64
(lp3128
S'}}'
p3129
asbasbasbasbasbasbasbag57
(g73
g59
NtRp3130
(dp3131
g62
(dp3132
sg71
g2845
sg64
(lp3133
g57
(g78
g59
NtRp3134
(dp3135
g62
(dp3136
g82
g83
ssg71
g3130
sg64
(lp3137
S'files'
p3138
asbag57
(g78
g59
NtRp3139
(dp3140
g62
(dp3141
g89
g90
ssg71
g3130
sg64
(lp3142
S':'
asbag57
(g78
g59
NtRp3143
(dp3144
g62
(dp3145
sg71
g3130
sg64
(lp3146
g57
(g58
g59
NtRp3147
(dp3148
g62
(dp3149
g70
I5
ssg71
g3143
sg64
(lp3150
g57
(g66
g59
NtRp3151
(dp3152
g62
(dp3153
g70
I4
ssg71
Nsg64
(lp3154
sbasbasbasbag57
(g73
g59
NtRp3155
(dp3156
g62
(dp3157
sg71
g2845
sg64
(lp3158
g57
(g78
g59
NtRp3159
(dp3160
g62
(dp3161
g82
g83
ssg71
g3155
sg64
(lp3162
S'flash'
p3163
asbag57
(g78
g59
NtRp3164
(dp3165
g62
(dp3166
g89
g90
ssg71
g3155
sg64
(lp3167
S':'
asbag57
(g78
g59
NtRp3168
(dp3169
g62
(dp3170
sg71
g3155
sg64
(lp3171
g57
(g58
g59
NtRp3172
(dp3173
g62
(dp3174
g70
I5
ssg71
g3168
sg64
(lp3175
S''
asbasbasbag57
(g73
g59
NtRp3176
(dp3177
g62
(dp3178
sg71
g2845
sg64
(lp3179
g57
(g78
g59
NtRp3180
(dp3181
g62
(dp3182
g82
g83
ssg71
g3176
sg64
(lp3183
S'generic_patterns'
p3184
asbag57
(g78
g59
NtRp3185
(dp3186
g62
(dp3187
g89
g90
ssg71
g3176
sg64
(lp3188
S':'
asbag57
(g78
g59
NtRp3189
(dp3190
g62
(dp3191
sg71
g3176
sg64
(lp3192
g57
(g58
g59
NtRp3193
(dp3194
g62
(dp3195
g70
I5
ssg71
g3189
sg64
(lp3196
g57
(g66
g59
NtRp3197
(dp3198
g62
(dp3199
g70
I4
ssg71
Nsg64
(lp3200
g57
(g73
g59
NtRp3201
(dp3202
g62
(dp3203
sg71
g3197
sg64
(lp3204
g57
(g78
g59
NtRp3205
(dp3206
g62
(dp3207
sg71
g3201
sg64
(lp3208
g57
(g58
g59
NtRp3209
(dp3210
g62
(dp3211
g70
I4
ssg71
g3205
sg64
(lp3212
S'*'
asbasbasbasbasbasbasbag57
(g73
g59
NtRp3213
(dp3214
g62
(dp3215
sg71
g2845
sg64
(lp3216
g57
(g78
g59
NtRp3217
(dp3218
g62
(dp3219
g82
g83
ssg71
g3213
sg64
(lp3220
S'headers'
p3221
asbag57
(g78
g59
NtRp3222
(dp3223
g62
(dp3224
g89
g90
ssg71
g3213
sg64
(lp3225
S':'
asbag57
(g78
g59
NtRp3226
(dp3227
g62
(dp3228
sg71
g3213
sg64
(lp3229
g57
(g58
g59
NtRp3230
(dp3231
g62
(dp3232
g70
I5
ssg71
g3226
sg64
(lp3233
g57
(g66
g59
NtRp3234
(dp3235
g62
(dp3236
g70
I4
ssg71
Nsg64
(lp3237
g57
(g73
g59
NtRp3238
(dp3239
g62
(dp3240
sg71
g3234
sg64
(lp3241
g57
(g78
g59
NtRp3242
(dp3243
g62
(dp3244
g82
g83
ssg71
g3238
sg64
(lp3245
S'Cache-Control'
p3246
asbag57
(g78
g59
NtRp3247
(dp3248
g62
(dp3249
g89
g90
ssg71
g3238
sg64
(lp3250
S':'
asbag57
(g78
g59
NtRp3251
(dp3252
g62
(dp3253
sg71
g3238
sg64
(lp3254
g57
(g58
g59
NtRp3255
(dp3256
g62
(dp3257
g70
I4
ssg71
g3251
sg64
(lp3258
S'no-store, no-cache, must-revalidate, post-check=0, pre-check=0'
p3259
asbasbasbag57
(g73
g59
NtRp3260
(dp3261
g62
(dp3262
sg71
g3234
sg64
(lp3263
g57
(g78
g59
NtRp3264
(dp3265
g62
(dp3266
g82
g83
ssg71
g3260
sg64
(lp3267
S'Content-Type'
p3268
asbag57
(g78
g59
NtRp3269
(dp3270
g62
(dp3271
g89
g90
ssg71
g3260
sg64
(lp3272
S':'
asbag57
(g78
g59
NtRp3273
(dp3274
g62
(dp3275
sg71
g3260
sg64
(lp3276
g57
(g58
g59
NtRp3277
(dp3278
g62
(dp3279
g70
I4
ssg71
g3273
sg64
(lp3280
S'text/html; charset=utf-8'
p3281
asbasbasbag57
(g73
g59
NtRp3282
(dp3283
g62
(dp3284
sg71
g3234
sg64
(lp3285
g57
(g78
g59
NtRp3286
(dp3287
g62
(dp3288
g82
g83
ssg71
g3282
sg64
(lp3289
S'Expires'
p3290
asbag57
(g78
g59
NtRp3291
(dp3292
g62
(dp3293
g89
g90
ssg71
g3282
sg64
(lp3294
S':'
asbag57
(g78
g59
NtRp3295
(dp3296
g62
(dp3297
sg71
g3282
sg64
(lp3298
g57
(g58
g59
NtRp3299
(dp3300
g62
(dp3301
g70
I4
ssg71
g3295
sg64
(lp3302
S'Thu, 20 Mar 2014 01:29:32 GMT'
p3303
asbasbasbag57
(g73
g59
NtRp3304
(dp3305
g62
(dp3306
sg71
g3234
sg64
(lp3307
g57
(g78
g59
NtRp3308
(dp3309
g62
(dp3310
g82
g83
ssg71
g3304
sg64
(lp3311
S'Pragma'
p3312
asbag57
(g78
g59
NtRp3313
(dp3314
g62
(dp3315
g89
g90
ssg71
g3304
sg64
(lp3316
S':'
asbag57
(g78
g59
NtRp3317
(dp3318
g62
(dp3319
sg71
g3304
sg64
(lp3320
g57
(g58
g59
NtRp3321
(dp3322
g62
(dp3323
g70
I4
ssg71
g3317
sg64
(lp3324
S'no-cache'
p3325
asbasbasbag57
(g73
g59
NtRp3326
(dp3327
g62
(dp3328
sg71
g3234
sg64
(lp3329
g57
(g78
g59
NtRp3330
(dp3331
g62
(dp3332
g82
g83
ssg71
g3326
sg64
(lp3333
S'X-Powered-By'
p3334
asbag57
(g78
g59
NtRp3335
(dp3336
g62
(dp3337
g89
g90
ssg71
g3326
sg64
(lp3338
S':'
asbag57
(g78
g59
NtRp3339
(dp3340
g62
(dp3341
sg71
g3326
sg64
(lp3342
g57
(g58
g59
NtRp3343
(dp3344
g62
(dp3345
g70
I4
ssg71
g3339
sg64
(lp3346
S'web2py'
p3347
asbasbasbasbasbasbasbag57
(g73
g59
NtRp3348
(dp3349
g62
(dp3350
sg71
g2845
sg64
(lp3351
g57
(g78
g59
NtRp3352
(dp3353
g62
(dp3354
g82
g83
ssg71
g3348
sg64
(lp3355
S'menu'
p3356
asbag57
(g78
g59
NtRp3357
(dp3358
g62
(dp3359
g89
g90
ssg71
g3348
sg64
(lp3360
S':'
asbag57
(g78
g59
NtRp3361
(dp3362
g62
(dp3363
sg71
g3348
sg64
(lp3364
g57
(g58
g59
NtRp3365
(dp3366
g62
(dp3367
g70
I5
ssg71
g3361
sg64
(lp3368
g57
(g66
g59
NtRp3369
(dp3370
g62
(dp3371
g70
I4
ssg71
Nsg64
(lp3372
sbasbasbasbag57
(g73
g59
NtRp3373
(dp3374
g62
(dp3375
sg71
g2845
sg64
(lp3376
g57
(g78
g59
NtRp3377
(dp3378
g62
(dp3379
g82
g83
ssg71
g3373
sg64
(lp3380
S'meta'
p3381
asbag57
(g78
g59
NtRp3382
(dp3383
g62
(dp3384
g89
g90
ssg71
g3373
sg64
(lp3385
S':'
asbag57
(g78
g59
NtRp3386
(dp3387
g62
(dp3388
sg71
g3373
sg64
(lp3389
g57
(g58
g59
NtRp3390
(dp3391
g62
(dp3392
g70
I5
ssg71
g3386
sg64
(lp3393
g57
(g66
g59
NtRp3394
(dp3395
g62
(dp3396
g70
I4
ssg71
Nsg64
(lp3397
sbasbasbasbag57
(g73
g59
NtRp3398
(dp3399
g62
(dp3400
sg71
g2845
sg64
(lp3401
g57
(g78
g59
NtRp3402
(dp3403
g62
(dp3404
g82
g83
ssg71
g3398
sg64
(lp3405
S'postprocessing'
p3406
asbag57
(g78
g59
NtRp3407
(dp3408
g62
(dp3409
g89
g90
ssg71
g3398
sg64
(lp3410
S':'
asbag57
(g78
g59
NtRp3411
(dp3412
g62
(dp3413
sg71
g3398
sg64
(lp3414
g57
(g58
g59
NtRp3415
(dp3416
g62
(dp3417
g70
I5
ssg71
g3411
sg64
(lp3418
g57
(g66
g59
NtRp3419
(dp3420
g62
(dp3421
g70
I4
ssg71
Nsg64
(lp3422
sbasbasbasbag57
(g73
g59
NtRp3423
(dp3424
g62
(dp3425
sg71
g2845
sg64
(lp3426
g57
(g78
g59
NtRp3427
(dp3428
g62
(dp3429
g82
g83
ssg71
g3423
sg64
(lp3430
S'session_filename'
p3431
asbag57
(g78
g59
NtRp3432
(dp3433
g62
(dp3434
g89
g90
ssg71
g3423
sg64
(lp3435
S':'
asbag57
(g78
g59
NtRp3436
(dp3437
g62
(dp3438
sg71
g3423
sg64
(lp3439
g57
(g58
g59
NtRp3440
(dp3441
g62
(dp3442
g70
I5
ssg71
g3436
sg64
(lp3443
S'/home/nazrul/web2py/applications/isas/sessions/127.0.0.1-35ab224f-5b51-4871-a3da-77daa1159299'
p3444
asbasbasbag57
(g73
g59
NtRp3445
(dp3446
g62
(dp3447
sg71
g2845
sg64
(lp3448
g57
(g78
g59
NtRp3449
(dp3450
g62
(dp3451
g82
g83
ssg71
g3445
sg64
(lp3452
S'session_id'
p3453
asbag57
(g78
g59
NtRp3454
(dp3455
g62
(dp3456
g89
g90
ssg71
g3445
sg64
(lp3457
S':'
asbag57
(g78
g59
NtRp3458
(dp3459
g62
(dp3460
sg71
g3445
sg64
(lp3461
g57
(g58
g59
NtRp3462
(dp3463
g62
(dp3464
g70
I5
ssg71
g3458
sg64
(lp3465
S'127.0.0.1-35ab224f-5b51-4871-a3da-77daa1159299'
p3466
asbasbasbag57
(g73
g59
NtRp3467
(dp3468
g62
(dp3469
sg71
g2845
sg64
(lp3470
g57
(g78
g59
NtRp3471
(dp3472
g62
(dp3473
g82
g83
ssg71
g3467
sg64
(lp3474
S'session_id_name'
p3475
asbag57
(g78
g59
NtRp3476
(dp3477
g62
(dp3478
g89
g90
ssg71
g3467
sg64
(lp3479
S':'
asbag57
(g78
g59
NtRp3480
(dp3481
g62
(dp3482
sg71
g3467
sg64
(lp3483
g57
(g58
g59
NtRp3484
(dp3485
g62
(dp3486
g70
I5
ssg71
g3480
sg64
(lp3487
g2902
asbasbasbag57
(g73
g59
NtRp3488
(dp3489
g62
(dp3490
sg71
g2845
sg64
(lp3491
g57
(g78
g59
NtRp3492
(dp3493
g62
(dp3494
g82
g83
ssg71
g3488
sg64
(lp3495
S'session_new'
p3496
asbag57
(g78
g59
NtRp3497
(dp3498
g62
(dp3499
g89
g90
ssg71
g3488
sg64
(lp3500
S':'
asbag57
(g78
g59
NtRp3501
(dp3502
g62
(dp3503
sg71
g3488
sg64
(lp3504
g57
(g58
g59
NtRp3505
(dp3506
g62
(dp3507
g70
I5
ssg71
g3501
sg64
(lp3508
g1471
asbasbasbag57
(g73
g59
NtRp3509
(dp3510
g62
(dp3511
sg71
g2845
sg64
(lp3512
g57
(g78
g59
NtRp3513
(dp3514
g62
(dp3515
g82
g83
ssg71
g3509
sg64
(lp3516
S'status'
p3517
asbag57
(g78
g59
NtRp3518
(dp3519
g62
(dp3520
g89
g90
ssg71
g3509
sg64
(lp3521
S':'
asbag57
(g78
g59
NtRp3522
(dp3523
g62
(dp3524
sg71
g3509
sg64
(lp3525
g57
(g58
g59
NtRp3526
(dp3527
g62
(dp3528
g70
I5
ssg71
g3522
sg64
(lp3529
S'200'
p3530
asbasbasbag57
(g73
g59
NtRp3531
(dp3532
g62
(dp3533
sg71
g2845
sg64
(lp3534
g57
(g78
g59
NtRp3535
(dp3536
g62
(dp3537
g82
g83
ssg71
g3531
sg64
(lp3538
g2135
asbag57
(g78
g59
NtRp3539
(dp3540
g62
(dp3541
g89
g90
ssg71
g3531
sg64
(lp3542
S':'
asbag57
(g78
g59
NtRp3543
(dp3544
g62
(dp3545
sg71
g3531
sg64
(lp3546
g57
(g58
g59
NtRp3547
(dp3548
g62
(dp3549
g70
I5
ssg71
g3543
sg64
(lp3550
g2148
asbasbasbag57
(g73
g59
NtRp3551
(dp3552
g62
(dp3553
sg71
g2845
sg64
(lp3554
g57
(g78
g59
NtRp3555
(dp3556
g62
(dp3557
g82
g83
ssg71
g3551
sg64
(lp3558
S'view'
p3559
asbag57
(g78
g59
NtRp3560
(dp3561
g62
(dp3562
g89
g90
ssg71
g3551
sg64
(lp3563
S':'
asbag57
(g78
g59
NtRp3564
(dp3565
g62
(dp3566
sg71
g3551
sg64
(lp3567
g57
(g58
g59
NtRp3568
(dp3569
g62
(dp3570
g70
I5
ssg71
g3564
sg64
(lp3571
S'default/index.html'
p3572
asbasbasbasbasbsS'locals'
p3573
(dp3574
S'Service'
p3575
S"<class 'gluon.tools.Service'>"
p3576
sS'OBJECT'
p3577
S"<class 'gluon.html.OBJECT'>"
p3578
sS'SQLDB'
p3579
S"<class 'gluon.dal.DAL'>"
p3580
sg2827
S"<Storage {'_Session__hash': '\\xc8[\\xd5\\xc1#\\xd8e\\x10\\xe3\\x06\\x0ba\\xddT\\x92m'}>"
p3581
sS'LINK'
p3582
S"<class 'gluon.html.LINK'>"
p3583
sS'BR'
p3584
S"<class 'gluon.html.BR'>"
p3585
sS'local_import'
p3586
S'<function <lambda>>'
p3587
sS'OPTGROUP'
p3588
S"<class 'gluon.html.OPTGROUP'>"
p3589
sS'LI'
p3590
S"<class 'gluon.html.LI'>"
p3591
sS'PRE'
p3592
S"<class 'gluon.html.PRE'>"
p3593
sS'IS_INT_IN_RANGE'
p3594
S"<class 'gluon.validators.IS_INT_IN_RANGE'>"
p3595
sS'IS_LOWER'
p3596
S"<class 'gluon.validators.IS_LOWER'>"
p3597
sS'IS_STRONG'
p3598
S"<class 'gluon.validators.IS_STRONG'>"
p3599
sS'cache'
p3600
S'<gluon.cache.Cache object>'
p3601
sS'IS_IN_DB'
p3602
S"<class 'gluon.validators.IS_IN_DB'>"
p3603
sS'TAG'
p3604
S'<gluon.html.__TAG__ object>'
p3605
sS'SQLField'
p3606
S"<class 'gluon.dal.Field'>"
p3607
sS'BODY'
p3608
S"<class 'gluon.html.BODY'>"
p3609
sS'IS_DATE_IN_RANGE'
p3610
S"<class 'gluon.validators.IS_DATE_IN_RANGE'>"
p3611
sS'IFRAME'
p3612
S"<class 'gluon.html.IFRAME'>"
p3613
sS'URL'
p3614
S'<function URL>'
p3615
sS'__file__'
p3616
S"'/home/nazrul/web2py/applications/isas/models/db.py'"
p3617
sS'db'
p3618
S"<DAL {'_migrate_enabled': True, '_lastsql': '', ...'_uri_hash': 'c8b669d15150d7109e5f7ab36744a5b7'}>"
p3619
sS'auth'
p3620
S'<gluon.tools.Auth object>'
p3621
sS'P'
S"<class 'gluon.html.P'>"
p3622
sS'TFOOT'
p3623
S"<class 'gluon.html.TFOOT'>"
p3624
sS'XHTML'
p3625
S"<class 'gluon.html.XHTML'>"
p3626
sS'ON'
p3627
g1471
sS'OL'
p3628
S"<class 'gluon.html.OL'>"
p3629
sS'TEXTAREA'
p3630
S"<class 'gluon.html.TEXTAREA'>"
p3631
sS'MENU'
p3632
S"<class 'gluon.html.MENU'>"
p3633
sS'EM'
p3634
S"<class 'gluon.html.EM'>"
p3635
sS'CODE'
p3636
S"<class 'gluon.html.CODE'>"
p3637
sS'HTTP'
p3638
S"<class 'gluon.http.HTTP'>"
p3639
sS'HR'
p3640
S"<class 'gluon.html.HR'>"
p3641
sS'IS_DATETIME'
p3642
S"<class 'gluon.validators.IS_DATETIME'>"
p3643
sS'STYLE'
p3644
S"<class 'gluon.html.STYLE'>"
p3645
sS'LABEL'
p3646
S"<class 'gluon.html.LABEL'>"
p3647
sS'META'
p3648
S"<class 'gluon.html.META'>"
p3649
sS'plugins'
p3650
S'<gluon.tools.PluginManager object>'
p3651
sS'SELECT'
p3652
S"<class 'gluon.html.SELECT'>"
p3653
sS'CENTER'
p3654
S"<class 'gluon.html.CENTER'>"
p3655
sS'prettydate'
p3656
S'<function prettydate>'
p3657
sS'Crud'
p3658
S"<class 'gluon.tools.Crud'>"
p3659
sS'Auth'
p3660
S"<class 'gluon.tools.Auth'>"
p3661
sS'__builtins__'
p3662
S"{'ArithmeticError': <type 'exceptions.ArithmeticError'>, 'AssertionError': <type 'exceptions.AssertionError'>, 'AttributeError': <type 'exceptions.AttributeError'>, 'BaseException': <type 'exceptions.BaseException'>, 'BufferError': <type 'exceptions.BufferError'>, 'BytesWarning': <type 'exceptions.BytesWarning'>, 'DeprecationWarning': <type 'exceptions.DeprecationWarning'>, 'EOFError': <type 'exceptions.EOFError'>, 'Ellipsis': Ellipsis, 'EnvironmentError': <type 'exceptions.EnvironmentError'>, ...}"
p3663
sS'HTML'
p3664
S"<class 'gluon.html.HTML'>"
p3665
sS'SQLFORM'
p3666
S"<class 'gluon.sqlhtml.SQLFORM'>"
p3667
sS'LOAD'
p3668
S'<function LOAD>'
p3669
sS'redirect'
p3670
S'<function redirect>'
p3671
sS'FIELDSET'
p3672
S"<class 'gluon.html.FIELDSET'>"
p3673
sS'IS_EQUAL_TO'
p3674
S"<class 'gluon.validators.IS_EQUAL_TO'>"
p3675
sS'embed64'
p3676
S'<function embed64>'
p3677
sS'IS_LIST_OF'
p3678
S"<class 'gluon.validators.IS_LIST_OF'>"
p3679
sS'INPUT'
p3680
S"<class 'gluon.html.INPUT'>"
p3681
sS'EMBED'
p3682
S"<class 'gluon.html.EMBED'>"
p3683
sS'FORM'
p3684
S"<class 'gluon.html.FORM'>"
p3685
sS'H2'
p3686
S"<class 'gluon.html.H2'>"
p3687
sS'H3'
p3688
S"<class 'gluon.html.H3'>"
p3689
sS'BUTTON'
p3690
S"<class 'gluon.html.BUTTON'>"
p3691
sS'H1'
p3692
S"<class 'gluon.html.H1'>"
p3693
sS'H6'
p3694
S"<class 'gluon.html.H6'>"
p3695
sS'H4'
p3696
S"<class 'gluon.html.H4'>"
p3697
sS'H5'
p3698
S"<class 'gluon.html.H5'>"
p3699
sS'UL'
p3700
S"<class 'gluon.html.UL'>"
p3701
sS'IS_UPPER'
p3702
S"<class 'gluon.validators.IS_UPPER'>"
p3703
sS'xmlescape'
p3704
S'<function xmlescape>'
p3705
sS'IS_TIME'
p3706
S"<class 'gluon.validators.IS_TIME'>"
p3707
sS'OPTION'
p3708
S"<class 'gluon.html.OPTION'>"
p3709
sS'TITLE'
p3710
S"<class 'gluon.html.TITLE'>"
p3711
sS'CRYPT'
p3712
S"<class 'gluon.validators.CRYPT'>"
p3713
sS'IS_EMPTY_OR'
p3714
S"<class 'gluon.validators.IS_EMPTY_OR'>"
p3715
sS'MARKMIN'
p3716
S"<class 'gluon.html.MARKMIN'>"
p3717
sS'__name__'
p3718
S"'__restricted__'"
p3719
sS'COL'
p3720
S"<class 'gluon.html.COL'>"
p3721
sS'service'
p3722
S'<gluon.tools.Service object>'
p3723
sS'SCRIPT'
p3724
S"<class 'gluon.html.SCRIPT'>"
p3725
sS'TABLE'
p3726
S"<class 'gluon.html.TABLE'>"
p3727
sS'IS_IPV4'
p3728
S"<class 'gluon.validators.IS_IPV4'>"
p3729
sS'IS_LENGTH'
p3730
S"<class 'gluon.validators.IS_LENGTH'>"
p3731
sS'XML'
p3732
S"<class 'gluon.html.XML'>"
p3733
sS'B'
S"<class 'gluon.html.B'>"
p3734
sS'IMG'
p3735
S"<class 'gluon.html.IMG'>"
p3736
sS'SQLTABLE'
p3737
S"<class 'gluon.sqlhtml.SQLTABLE'>"
p3738
sS'IS_MATCH'
p3739
S"<class 'gluon.validators.IS_MATCH'>"
p3740
sS'IS_ALPHANUMERIC'
p3741
S"<class 'gluon.validators.IS_ALPHANUMERIC'>"
p3742
sS'SPAN'
p3743
S"<class 'gluon.html.SPAN'>"
p3744
sS'IS_SLUG'
p3745
S"<class 'gluon.validators.IS_SLUG'>"
p3746
sS'CLEANUP'
p3747
S"<class 'gluon.validators.CLEANUP'>"
p3748
sS'IS_DATE'
p3749
S"<class 'gluon.validators.IS_DATE'>"
p3750
sS'IS_EMAIL'
p3751
S"<class 'gluon.validators.IS_EMAIL'>"
p3752
sS'IS_NOT_EMPTY'
p3753
S"<class 'gluon.validators.IS_NOT_EMPTY'>"
p3754
sS'IS_FLOAT_IN_RANGE'
p3755
S"<class 'gluon.validators.IS_FLOAT_IN_RANGE'>"
p3756
sS'BEAUTIFY'
p3757
S"<class 'gluon.html.BEAUTIFY'>"
p3758
sS'TBODY'
p3759
S"<class 'gluon.html.TBODY'>"
p3760
sS'CAT'
p3761
S"<class 'gluon.html.CAT'>"
p3762
sS'Field'
p3763
S"<class 'gluon.dal.Field'>"
p3764
sS'DIV'
p3765
S"<class 'gluon.html.DIV'>"
p3766
sS'LEGEND'
p3767
S"<class 'gluon.html.LEGEND'>"
p3768
sS'COLGROUP'
p3769
S"<class 'gluon.html.COLGROUP'>"
p3770
sS'DAL'
p3771
S"<class 'gluon.dal.DAL'>"
p3772
sS'TT'
p3773
S"<class 'gluon.html.TT'>"
p3774
sS'TR'
p3775
S"<class 'gluon.html.TR'>"
p3776
sS'__package__'
p3777
S'None'
p3778
sS'TH'
p3779
S"<class 'gluon.html.TH'>"
p3780
sS'TD'
p3781
S"<class 'gluon.html.TD'>"
p3782
sS'PluginManager'
p3783
S"<class 'gluon.tools.PluginManager'>"
p3784
sS'IS_URL'
p3785
S"<class 'gluon.validators.IS_URL'>"
p3786
sS'A'
S"<class 'gluon.html.A'>"
p3787
sS'HEAD'
p3788
S"<class 'gluon.html.HEAD'>"
p3789
sS'IS_DATETIME_IN_RANGE'
p3790
S"<class 'gluon.validators.IS_DATETIME_IN_RANGE'>"
p3791
sS'IS_IMAGE'
p3792
S"<class 'gluon.validators.IS_IMAGE'>"
p3793
sS'I'
S"<class 'gluon.html.I'>"
p3794
sS'crud'
p3795
S'<gluon.tools.Crud object>'
p3796
sS'IS_NOT_IN_DB'
p3797
S"<class 'gluon.validators.IS_NOT_IN_DB'>"
p3798
sg2840
S"<Storage {'status': 200, 'body': <cStringIO.Stri...a3c>, 'files': [], 'view': 'default/index.html'}>"
p3799
sS'THEAD'
p3800
S"<class 'gluon.html.THEAD'>"
p3801
sS'IS_NULL_OR'
p3802
S"<class 'gluon.validators.IS_EMPTY_OR'>"
p3803
sg56
S"<Storage {'body': <cStringIO.StringO object at 0..._vars': <Storage {}>, 'post_vars': <Storage {}>}>"
p3804
sS'IS_EXPR'
p3805
S"<class 'gluon.validators.IS_EXPR'>"
p3806
sS'IS_IN_SET'
p3807
S"<class 'gluon.validators.IS_IN_SET'>"
p3808
sS'IS_UPLOAD_FILENAME'
p3809
S"<class 'gluon.validators.IS_UPLOAD_FILENAME'>"
p3810
sS'IS_DECIMAL_IN_RANGE'
p3811
S"<class 'gluon.validators.IS_DECIMAL_IN_RANGE'>"
p3812
sS'T'
S'<gluon.languages.translator object>'
p3813
sssS'traceback'
p3814
S'Traceback (most recent call last):\n  File "/usr/lib/pymodules/python2.7/gluon/restricted.py", line 205, in restricted\n    exec ccode in environment\n  File "/home/nazrul/web2py/applications/isas/models/db.py", line 59, in <module>\n    auth.define_tables(username=True, signature=False)\nTypeError: define_tables() got an unexpected keyword argument \'signature\'\n'
p3815
s.